TN:
SF:/Users/trungpham/Documents/splashkit-core/coresdk/src/backend/audio_driver.cpp
FNL:0,126,150
FNA:0,12,_ZN13splashkit_lib19sk_close_sound_dataEPNS_13sk_sound_dataE
FNL:1,152,179
FNA:1,6,_ZN13splashkit_lib13sk_play_soundEPNS_13sk_sound_dataEif
FNL:2,181,205
FNA:2,6,_ZN13splashkit_lib16sk_sound_playingEPNS_13sk_sound_dataE
FNL:3,207,234
FNA:3,0,_ZN13splashkit_lib10sk_fade_inEPNS_13sk_sound_dataEii
FNL:4,236,262
FNA:4,0,_ZN13splashkit_lib11sk_fade_outEPNS_13sk_sound_dataEi
FNL:5,264,268
FNA:5,0,_ZN13splashkit_lib29sk_fade_all_sound_effects_outEi
FNL:6,270,275
FNA:6,0,_ZN13splashkit_lib17sk_fade_music_outEi
FNL:7,277,281
FNA:7,6,_ZN13splashkit_lib16sk_set_music_volEd
FNL:8,283,286
FNA:8,8,_ZN13splashkit_lib12sk_music_volEv
FNL:9,289,305
FNA:9,0,_ZN13splashkit_lib15sk_sound_volumeEPNS_13sk_sound_dataE
FNL:10,307,325
FNA:10,0,_ZN13splashkit_lib19sk_set_sound_volumeEPNS_13sk_sound_dataEd
FNL:11,327,331
FNA:11,2,_ZN13splashkit_lib14sk_pause_musicEv
FNL:12,333,340
FNA:12,2,_ZN13splashkit_lib15sk_resume_musicEv
FNL:13,342,346
FNA:13,2,_ZN13splashkit_lib13sk_stop_musicEv
FNL:14,348,373
FNA:14,2,_ZN13splashkit_lib13sk_stop_soundEPNS_13sk_sound_dataE
FNL:15,35,38
FNA:15,2,_ZN13splashkit_lib13sk_init_audioEv
FNL:16,375,385
FNA:16,10,_ZN13splashkit_lib16sk_music_playingEv
FNL:17,387,389
FNA:17,0,_ZN13splashkit_lib16sk_current_musicEv
FNL:18,40,43
FNA:18,32,_ZN13splashkit_lib16sk_audio_is_openEv
FNL:19,46,63
FNA:19,6,_ZN13splashkit_lib13sk_open_audioEv
FNL:20,65,75
FNA:20,0,_ZN13splashkit_lib14sk_close_audioEv
FNL:21,77,89
FNA:21,6,_ZN13splashkit_lib14sk_get_channelEPNS_13sk_sound_dataE
FNL:22,93,124
FNA:22,18,_ZN13splashkit_lib18sk_load_sound_dataENSt3__112basic_stringIcNS0_11char_traitsIcEENS0_9allocatorIcEEEENS_13sk_sound_kindE
FNF:23
FNH:15
DA:35,2
DA:37,2
DA:38,2
DA:40,32
DA:42,32
DA:43,32
DA:46,6
DA:48,6
DA:49,6
DA:52,0
DA:56,6
DA:57,6
DA:58,6
DA:60,6
DA:62,6
DA:63,6
DA:65,0
DA:67,0
DA:68,0
DA:69,0
DA:71,0
DA:72,0
DA:73,0
DA:74,0
DA:75,0
DA:77,6
DA:79,6
DA:81,262
DA:83,258
DA:85,2
DA:87,256
DA:88,4
DA:89,6
DA:93,18
DA:95,18
DA:96,18
DA:98,18
DA:100,18
DA:104,12
DA:105,12
DA:109,6
DA:110,6
DA:113,0
DA:115,0
DA:118,18
DA:120,0
DA:121,0
DA:123,18
DA:124,18
DA:126,12
DA:128,12
DA:130,12
DA:133,6
DA:134,6
DA:137,6
DA:139,0
DA:140,0
DA:141,6
DA:142,6
DA:145,0
DA:148,12
DA:149,12
DA:150,12
DA:152,6
DA:154,6
DA:156,6
DA:160,2
DA:161,2
DA:162,2
DA:164,2
DA:165,2
DA:166,2
DA:167,2
DA:171,4
DA:172,4
DA:173,4
DA:174,4
DA:177,0
DA:179,6
DA:181,6
DA:183,6
DA:184,0
DA:187,6
DA:191,6
DA:192,6
DA:196,0
DA:197,0
DA:201,0
DA:204,0
DA:205,6
DA:207,0
DA:209,0
DA:211,0
DA:216,0
DA:217,0
DA:219,0
DA:220,0
DA:221,0
DA:226,0
DA:227,0
DA:228,0
DA:232,0
DA:234,0
DA:236,0
DA:238,0
DA:240,0
DA:244,0
DA:245,0
DA:246,0
DA:251,0
DA:253,0
DA:254,0
DA:255,0
DA:256,0
DA:260,0
DA:262,0
DA:264,0
DA:266,0
DA:267,0
DA:268,0
DA:270,0
DA:272,0
DA:273,0
DA:274,0
DA:275,0
DA:277,6
DA:279,6
DA:280,6
DA:281,6
DA:283,8
DA:285,8
DA:286,8
DA:289,0
DA:291,0
DA:293,0
DA:296,0
DA:297,0
DA:299,0
DA:301,0
DA:304,0
DA:305,0
DA:307,0
DA:309,0
DA:311,0
DA:314,0
DA:315,0
DA:316,0
DA:319,0
DA:320,0
DA:323,0
DA:325,0
DA:327,2
DA:329,2
DA:330,2
DA:331,2
DA:333,2
DA:335,2
DA:336,2
DA:338,2
DA:339,2
DA:340,2
DA:342,2
DA:344,2
DA:345,2
DA:346,2
DA:348,2
DA:350,2
DA:352,2
DA:355,0
DA:356,0
DA:360,130
DA:362,128
DA:364,2
DA:365,2
DA:366,128
DA:367,2
DA:371,0
DA:373,2
DA:375,10
DA:377,10
DA:378,10
DA:379,6
DA:383,4
DA:385,10
DA:387,0
DA:389,0
LF:186
LH:104
end_of_record
TN:
SF:/Users/trungpham/Documents/splashkit-core/coresdk/src/backend/backend_types.h
FNL:0,112,230
FNA:0,26,_ZN13splashkit_lib10image_dataC1Ev
FNA:0,26,_ZN13splashkit_lib10image_dataC2Ev
FNA:0,24,_ZN13splashkit_lib10image_dataD1Ev
FNA:0,24,_ZN13splashkit_lib10image_dataD2Ev
FNL:1,118,230
FNA:1,0,_ZN13splashkit_lib12_window_dataC1Ev
FNA:1,0,_ZN13splashkit_lib12_window_dataC2Ev
FNA:1,0,_ZN13splashkit_lib12_window_dataD1Ev
FNA:1,0,_ZN13splashkit_lib12_window_dataD2Ev
FNL:2,144,230
FNA:2,26,_ZN13splashkit_lib12_bitmap_dataC1Ev
FNA:2,26,_ZN13splashkit_lib12_bitmap_dataC2Ev
FNA:2,24,_ZN13splashkit_lib12_bitmap_dataD1Ev
FNA:2,24,_ZN13splashkit_lib12_bitmap_dataD2Ev
FNL:3,160,230
FNA:3,2,_ZN13splashkit_lib12sk_font_dataC1Ev
FNA:3,2,_ZN13splashkit_lib12sk_font_dataC2Ev
FNA:3,0,_ZN13splashkit_lib12sk_font_dataD1Ev
FNA:3,0,_ZN13splashkit_lib12sk_font_dataD2Ev
FNL:4,189,230
FNA:4,8,_ZN13splashkit_lib18sk_connection_dataC1Ev
FNA:4,8,_ZN13splashkit_lib18sk_connection_dataC2Ev
FNA:4,8,_ZN13splashkit_lib18sk_connection_dataD1Ev
FNA:4,8,_ZN13splashkit_lib18sk_connection_dataD2Ev
FNL:5,204,230
FNA:5,8,_ZN13splashkit_lib14sk_server_dataC1Ev
FNA:5,8,_ZN13splashkit_lib14sk_server_dataC2Ev
FNA:5,8,_ZN13splashkit_lib14sk_server_dataD1Ev
FNA:5,8,_ZN13splashkit_lib14sk_server_dataD2Ev
FNL:6,216,230
FNA:6,0,_ZN13splashkit_lib10sk_messageC1Ev
FNA:6,0,_ZN13splashkit_lib10sk_messageC2Ev
FNA:6,0,_ZN13splashkit_lib10sk_messageD1Ev
FNA:6,0,_ZN13splashkit_lib10sk_messageD2Ev
FNL:7,230,230
FNA:7,0,_ZN13splashkit_lib16sk_http_responseC1Ev
FNA:7,0,_ZN13splashkit_lib16sk_http_responseC2Ev
FNA:7,0,_ZN13splashkit_lib16sk_http_responseD1Ev
FNA:7,0,_ZN13splashkit_lib16sk_http_responseD2Ev
FNL:8,243,243
FNA:8,0,_ZN13splashkit_lib15sk_http_requestC1Ev
FNA:8,0,_ZN13splashkit_lib15sk_http_requestC2Ev
FNA:8,0,_ZN13splashkit_lib15sk_http_requestD1Ev
FNA:8,0,_ZN13splashkit_lib15sk_http_requestD2Ev
FNL:9,261
FNA:9,0,_ZN13splashkit_lib13sk_web_serverC1Ev
FNA:9,0,_ZN13splashkit_lib13sk_web_serverC2Ev
FNL:10,289
FNA:10,0,_ZN13splashkit_lib15_animation_dataC1Ev
FNA:10,0,_ZN13splashkit_lib15_animation_dataC2Ev
FNA:10,0,_ZN13splashkit_lib15_animation_dataD1Ev
FNA:10,0,_ZN13splashkit_lib15_animation_dataD2Ev
FNL:11,301
FNA:11,2,_ZN13splashkit_lib22_animation_script_dataC1Ev
FNA:11,2,_ZN13splashkit_lib22_animation_script_dataC2Ev
FNA:11,2,_ZN13splashkit_lib22_animation_script_dataD1Ev
FNA:11,2,_ZN13splashkit_lib22_animation_script_dataD2Ev
FNF:12
FNH:6
DA:230,0
DA:243,0
LF:2
LH:0
end_of_record
TN:
SF:/Users/trungpham/Documents/splashkit-core/coresdk/src/backend/concurrency_utils.h
FNL:0,106,116
FNA:0,0,_ZN13splashkit_lib7channelIPNS_15sk_http_requestEE8try_takeERS2_
FNL:1,26,34
FNA:1,0,_ZN13splashkit_lib9semaphoreD1Ev
FNA:1,0,_ZN13splashkit_lib9semaphoreD2Ev
FNL:2,34,37
FNA:2,0,_ZN13splashkit_lib9semaphoreC1Ev
FNA:2,0,_ZN13splashkit_lib9semaphoreC2Ev
FNL:3,44,52
FNA:3,0,_ZN13splashkit_lib9semaphore7acquireEv
FNL:4,54,63
FNA:4,0,_ZN13splashkit_lib9semaphore11try_acquireEv
FNL:5,65,70
FNA:5,0,_ZN13splashkit_lib9semaphore7releaseEi
FNL:6,74,74
FNA:6,0,_ZN13splashkit_lib7channelIPNS_15sk_http_requestEEC1Ev
FNA:6,0,_ZN13splashkit_lib7channelIPNS_15sk_http_requestEEC2Ev
FNL:7,81,85
FNA:7,0,_ZN13splashkit_lib7channelIPNS_15sk_http_requestEE7dequeueEv
FNL:8,89,96
FNA:8,0,_ZN13splashkit_lib7channelIPNS_15sk_http_requestEE3putES2_
FNL:9,98,104
FNA:9,0,_ZN13splashkit_lib7channelIPNS_15sk_http_requestEE4takeEv
FNF:10
FNH:0
DA:34,0
DA:35,0
DA:36,0
DA:37,0
DA:44,0
DA:46,0
DA:47,0
DA:49,0
DA:51,0
DA:52,0
DA:54,0
DA:56,0
DA:57,0
DA:58,0
DA:61,0
DA:62,0
DA:63,0
DA:65,0
DA:67,0
DA:68,0
DA:69,0
DA:70,0
DA:74,0
DA:81,0
DA:83,0
DA:84,0
DA:85,0
DA:89,0
DA:91,0
DA:92,0
DA:93,0
DA:95,0
DA:96,0
DA:98,0
DA:100,0
DA:102,0
DA:103,0
DA:104,0
DA:106,0
DA:108,0
DA:110,0
DA:111,0
DA:112,0
DA:113,0
DA:115,0
DA:116,0
LF:46
LH:0
end_of_record
TN:
SF:/Users/trungpham/Documents/splashkit-core/coresdk/src/backend/core_driver.cpp
FNL:0,150,165
FNA:0,2,_ZN13splashkit_lib17sk_setup_displaysEv
FNL:1,167,170
FNA:1,0,_ZN13splashkit_lib19sk_read_system_dataEv
FNL:2,173,189
FNA:2,0,_ZN13splashkit_lib11sk_finaliseEv
FNL:3,35,88
FNA:3,166,_ZN13splashkit_lib16internal_sk_initEv
FNL:4,90,148
FNA:4,2,_ZN13splashkit_lib16sk_setup_displayEiRNS_10sk_displayE
FNF:5
FNH:3
DA:35,166
DA:38,166
DA:39,2
DA:41,2
DA:47,2
DA:48,2
DA:55,0
DA:61,2
DA:62,2
DA:63,2
DA:64,2
DA:65,2
DA:66,2
DA:67,2
DA:68,2
DA:72,2
DA:73,2
DA:75,2
DA:77,2
DA:79,2
DA:81,2
DA:83,2
DA:85,2
DA:87,2
DA:88,166
DA:90,2
DA:95,2
DA:97,2
DA:99,2
DA:100,2
DA:101,2
DA:102,2
DA:103,2
DA:105,2
DA:106,2
DA:107,2
DA:109,2
DA:110,2
DA:111,2
DA:112,2
DA:115,26
DA:117,24
DA:118,24
DA:120,156
DA:122,132
DA:124,0
DA:125,0
DA:127,132
DA:129,24
DA:131,24
DA:132,24
DA:133,24
DA:136,0
DA:137,0
DA:138,0
DA:139,0
DA:141,24
DA:142,24
DA:143,24
DA:144,24
DA:145,24
DA:146,24
DA:147,24
DA:148,2
DA:150,2
DA:152,2
DA:153,2
DA:154,0
DA:157,2
DA:159,2
DA:161,4
DA:163,2
DA:164,2
DA:165,2
DA:167,0
DA:169,0
DA:170,0
DA:173,0
DA:177,0
DA:179,0
DA:180,0
DA:182,0
DA:188,0
DA:189,0
LF:84
LH:66
end_of_record
TN:
SF:/Users/trungpham/Documents/splashkit-core/coresdk/src/backend/graphics_driver.cpp
FNL:0,1018,1047
FNA:0,0,_ZN13splashkit_lib12sk_draw_rectEPNS_18sk_drawing_surfaceENS_5colorEPdi
FNL:1,1057,1097
FNA:1,0,_ZN13splashkit_lib12sk_fill_rectEPNS_18sk_drawing_surfaceENS_5colorEPdi
FNL:2,1100,1116
FNA:2,0,_ZN13splashkit_lib24_sk_draw_bitmap_remappedEPNS_18sk_drawing_surfaceES1_NS_9rectangleES2_NS_16sk_renderer_flipE
FNL:3,1118,1281
FNA:3,0,_ZN13splashkit_lib20sk_draw_blurred_rectEPNS_18sk_drawing_surfaceENS_5colorEddddi
FNL:4,113,149
FNA:4,0,_ZN13splashkit_lib17_sk_make_drawableEPNS_12sk_bitmap_beE
FNL:5,1288,1314
FNA:5,0,_ZN13splashkit_lib16sk_draw_triangleEPNS_18sk_drawing_surfaceENS_5colorEdddddd
FNL:6,1316,1343
FNA:6,0,_ZN13splashkit_lib16sk_fill_triangleEPNS_18sk_drawing_surfaceENS_5colorEdddddd
FNL:7,1349,1379
FNA:7,0,_ZN13splashkit_lib15sk_draw_ellipseEPNS_18sk_drawing_surfaceENS_5colorEdddd
FNL:8,1381,1411
FNA:8,0,_ZN13splashkit_lib15sk_fill_ellipseEPNS_18sk_drawing_surfaceENS_5colorEdddd
FNL:9,1418,1448
FNA:9,0,_ZN13splashkit_lib13sk_draw_pixelEPNS_18sk_drawing_surfaceENS_5colorEdd
FNL:10,1450,1486
FNA:10,0,_ZN13splashkit_lib19sk_set_bitmap_pixelEPNS_18sk_drawing_surfaceENS_5colorEii
FNL:11,1488,1520
FNA:11,0,_ZN13splashkit_lib17sk_refresh_bitmapEPNS_18sk_drawing_surfaceE
FNL:12,1522,1540
FNA:12,0,_ZN13splashkit_lib18sk_set_bitmap_tintEPNS_18sk_drawing_surfaceENS_5colorE
FNL:13,1543,1569
FNA:13,0,_ZN13splashkit_lib13sk_read_pixelEPNS_18sk_drawing_surfaceEii
FNL:14,1576,1609
FNA:14,0,_ZN13splashkit_lib14sk_draw_circleEPNS_18sk_drawing_surfaceENS_5colorEddd
FNL:15,1611,1644
FNA:15,0,_ZN13splashkit_lib14sk_fill_circleEPNS_18sk_drawing_surfaceENS_5colorEddd
FNL:16,1651,1695
FNA:16,0,_ZN13splashkit_lib12sk_draw_lineEPNS_18sk_drawing_surfaceENS_5colorEddddd
FNL:17,168,266
FNA:17,0,_ZN13splashkit_lib25_sk_create_initial_windowEv
FNL:18,1702,1736
FNA:18,0,_ZN13splashkit_lib16sk_set_clip_rectEPNS_18sk_drawing_surfaceEdddd
FNL:19,1738,1776
FNA:19,0,_ZN13splashkit_lib18sk_clear_clip_rectEPNS_18sk_drawing_surfaceE
FNL:20,1778,1842
FNA:20,1978950,_ZN13splashkit_lib10_get_pixelEP11SDL_Surfaceii
FNL:21,1848,1890
FNA:21,26,_ZN13splashkit_lib12sk_to_pixelsEPNS_18sk_drawing_surfaceEPii
FNL:22,1897,1919
FNA:22,0,_ZN13splashkit_lib14sk_show_borderEPNS_18sk_drawing_surfaceEb
FNL:23,1921,1943
FNA:23,0,_ZN13splashkit_lib18sk_show_fullscreenEPNS_18sk_drawing_surfaceEb
FNL:24,1945,2002
FNA:24,0,_ZN13splashkit_lib9sk_resizeEPNS_18sk_drawing_surfaceEii
FNL:25,2005,2008
FNA:25,0,_ZN13splashkit_lib13png_user_warnEP14png_struct_defPKc
FNL:26,2010,2013
FNA:26,0,_ZN13splashkit_lib14png_user_errorEP14png_struct_defPKc
FNL:27,2015,2085
FNA:27,0,_ZN13splashkit_lib11sk_save_pngEPNS_18sk_drawing_surfaceEPKc
FNL:28,2095,2129
FNA:28,0,_ZN13splashkit_lib16sk_create_bitmapEii
FNL:29,2132,2173
FNA:29,26,_ZN13splashkit_lib14sk_load_bitmapEPKc
FNL:30,2178,2257
FNA:30,0,_ZN13splashkit_lib14sk_draw_bitmapEPNS_18sk_drawing_surfaceES1_PdiS2_iNS_16sk_renderer_flipE
FNL:31,2259,2272
FNA:31,0,_ZN13splashkit_lib20sk_finalise_graphicsEv
FNL:32,270,293
FNA:32,0,_ZN13splashkit_lib16_sk_copy_textureEP11SDL_TextureP12SDL_RendererS3_
FNL:33,296,311
FNA:33,0,_ZN13splashkit_lib36_sk_create_texture_for_bitmap_windowEPNS_12sk_bitmap_beEjj
FNL:34,317,358
FNA:34,0,_ZN13splashkit_lib14_sk_add_windowEPNS_12sk_window_beE
FNL:35,360,368
FNA:35,0,_ZN13splashkit_lib35_sk_has_open_bitmap_without_surfaceEv
FNL:36,370,375
FNA:36,0,_ZN13splashkit_lib28_sk_get_pixels_from_rendererEP12SDL_RendereriiiiPi
FNL:37,377,393
FNA:37,0,_ZN13splashkit_lib31_sk_bitmap_be_texture_to_pixelsEPNS_12sk_bitmap_beEPiiii
FNL:38,395,454
FNA:38,0,_ZN13splashkit_lib20_sk_restore_surfacesEv
FNL:39,456,518
FNA:39,0,_ZN13splashkit_lib17_sk_remove_windowEPNS_12sk_window_beE
FNL:40,49,53
FNA:40,0,_ZN13splashkit_lib22_sk_get_window_with_idEj
FNL:41,520,544
FNA:41,0,_ZN13splashkit_lib18_sk_destroy_windowEPNS_12sk_window_beE
FNL:42,546,552
FNA:42,0,_ZN13splashkit_lib26_sk_destroy_initial_windowEv
FNL:43,559,568
FNA:43,26,_ZN13splashkit_lib14_sk_add_bitmapEPNS_12sk_bitmap_beE
FNL:44,56,69
FNA:44,0,_ZN13splashkit_lib27_sk_get_window_with_pointerEPv
FNL:45,573,619
FNA:45,24,_ZN13splashkit_lib17_sk_remove_bitmapEPNS_12sk_bitmap_beE
FNL:46,621,641
FNA:46,24,_ZN13splashkit_lib18_sk_destroy_bitmapEPNS_12sk_bitmap_beE
FNL:47,650,713
FNA:47,0,_ZN13splashkit_lib15_sk_open_windowEPKciijPNS_12sk_window_beE
FNL:48,719,761
FNA:48,0,_ZN13splashkit_lib14sk_open_windowEPKcii
FNL:49,763,787
FNA:49,24,_ZN13splashkit_lib24sk_close_drawing_surfaceEPNS_18sk_drawing_surfaceE
FNL:50,78,90
FNA:50,0,_ZN13splashkit_lib33_sk_restore_default_render_targetEPNS_12sk_window_beEPNS_12sk_bitmap_beE
FNL:51,789,797
FNA:51,0,_ZN13splashkit_lib11sk_set_iconEPNS_18sk_drawing_surfaceES1_
FNL:52,800,808
FNA:52,0,_ZN13splashkit_lib12_sk_do_clearEP12SDL_RendererNS_5colorE
FNL:53,810,823
FNA:53,0,_ZN13splashkit_lib16_sk_clear_windowEPNS_18sk_drawing_surfaceENS_5colorE
FNL:54,825,845
FNA:54,0,_ZN13splashkit_lib16_sk_clear_bitmapEPNS_18sk_drawing_surfaceENS_5colorE
FNL:55,847,864
FNA:55,0,_ZN13splashkit_lib24sk_clear_drawing_surfaceEPNS_18sk_drawing_surfaceENS_5colorE
FNL:56,866,876
FNA:56,0,_ZN13splashkit_lib18_sk_present_windowEPNS_12sk_window_beE
FNL:57,878,886
FNA:57,0,_ZN13splashkit_lib17sk_refresh_windowEPNS_18sk_drawing_surfaceE
FNL:58,892,914
FNA:58,0,_ZN13splashkit_lib21_sk_prepared_rendererEPNS_18sk_drawing_surfaceEj
FNL:59,916,930
FNA:59,0,_ZN13splashkit_lib19_sk_complete_renderEPNS_18sk_drawing_surfaceEj
FNL:60,92,95
FNA:60,0,_ZN13splashkit_lib33_sk_restore_default_render_targetEjPNS_12sk_bitmap_beE
FNL:61,932,946
FNA:61,0,_ZN13splashkit_lib18_sk_renderer_countEPNS_18sk_drawing_surfaceE
FNL:62,953,979
FNA:62,0,_ZN13splashkit_lib15sk_draw_aa_rectEPNS_18sk_drawing_surfaceENS_5colorEdddd
FNL:63,97,111
FNA:63,0,_ZN13splashkit_lib23_sk_set_renderer_targetEjPNS_12sk_bitmap_beE
FNL:64,981,1007
FNA:64,0,_ZN13splashkit_lib15sk_fill_aa_rectEPNS_18sk_drawing_surfaceENS_5colorEdddd
FNF:65
FNH:7
DA:49,0
DA:51,0
DA:53,0
DA:56,0
DA:58,0
DA:60,0
DA:62,0
DA:64,0
DA:66,0
DA:68,0
DA:69,0
DA:78,0
DA:80,0
DA:81,0
DA:82,0
DA:84,0
DA:85,0
DA:86,0
DA:88,0
DA:89,0
DA:90,0
DA:92,0
DA:94,0
DA:95,0
DA:97,0
DA:99,0
DA:100,0
DA:101,0
DA:103,0
DA:105,0
DA:106,0
DA:107,0
DA:109,0
DA:110,0
DA:111,0
DA:113,0
DA:119,0
DA:121,0
DA:123,0
DA:125,0
DA:127,0
DA:130,0
DA:131,0
DA:134,0
DA:135,0
DA:138,0
DA:140,0
DA:141,0
DA:144,0
DA:145,0
DA:148,0
DA:149,0
DA:168,0
DA:170,0
DA:171,0
DA:174,0
DA:177,0
DA:178,0
DA:180,0
DA:184,0
DA:186,0
DA:187,0
DA:190,0
DA:194,0
DA:196,0
DA:198,0
DA:200,0
DA:201,0
DA:203,0
DA:205,0
DA:206,0
DA:208,0
DA:213,0
DA:214,0
DA:216,0
DA:217,0
DA:218,0
DA:219,0
DA:221,0
DA:222,0
DA:224,0
DA:226,0
DA:227,0
DA:228,0
DA:230,0
DA:235,0
DA:236,0
DA:237,0
DA:238,0
DA:239,0
DA:241,0
DA:243,0
DA:245,0
DA:247,0
DA:250,0
DA:251,0
DA:253,0
DA:254,0
DA:255,0
DA:259,0
DA:261,0
DA:264,0
DA:265,0
DA:266,0
DA:270,0
DA:276,0
DA:277,0
DA:279,0
DA:280,0
DA:284,0
DA:285,0
DA:287,0
DA:288,0
DA:291,0
DA:293,0
DA:296,0
DA:298,0
DA:301,0
DA:303,0
DA:304,0
DA:307,0
DA:308,0
DA:309,0
DA:311,0
DA:317,0
DA:320,0
DA:322,0
DA:323,0
DA:324,0
DA:327,0
DA:329,0
DA:331,0
DA:332,0
DA:333,0
DA:337,0
DA:340,0
DA:342,0
DA:345,0
DA:346,0
DA:348,0
DA:350,0
DA:351,0
DA:354,0
DA:357,0
DA:358,0
DA:360,0
DA:362,0
DA:364,0
DA:365,0
DA:367,0
DA:368,0
DA:370,0
DA:372,0
DA:374,0
DA:375,0
DA:377,0
DA:379,0
DA:382,0
DA:383,0
DA:384,0
DA:385,0
DA:389,0
DA:390,0
DA:391,0
DA:393,0
DA:395,0
DA:407,0
DA:408,0
DA:409,0
DA:410,0
DA:413,0
DA:415,0
DA:418,0
DA:420,0
DA:421,0
DA:425,0
DA:427,0
DA:429,0
DA:431,0
DA:433,0
DA:434,0
DA:435,0
DA:437,0
DA:440,0
DA:441,0
DA:443,0
DA:444,0
DA:445,0
DA:446,0
DA:448,0
DA:451,0
DA:452,0
DA:453,0
DA:454,0
DA:456,0
DA:458,0
DA:459,0
DA:461,0
DA:462,0
DA:465,0
DA:468,0
DA:469,0
DA:472,0
DA:475,0
DA:478,0
DA:480,0
DA:481,0
DA:484,0
DA:485,0
DA:488,0
DA:490,0
DA:491,0
DA:492,0
DA:493,0
DA:494,0
DA:496,0
DA:498,0
DA:500,0
DA:502,0
DA:503,0
DA:505,0
DA:509,0
DA:511,0
DA:514,0
DA:515,0
DA:518,0
DA:520,0
DA:522,0
DA:524,0
DA:526,0
DA:527,0
DA:529,0
DA:530,0
DA:532,0
DA:533,0
DA:534,0
DA:535,0
DA:537,0
DA:539,0
DA:540,0
DA:541,0
DA:543,0
DA:544,0
DA:546,0
DA:548,0
DA:550,0
DA:551,0
DA:552,0
DA:559,26
DA:561,26
DA:562,26
DA:564,26
DA:566,26
DA:567,26
DA:568,26
DA:573,24
DA:575,24
DA:576,30
DA:578,30
DA:579,6
DA:581,24
DA:584,0
DA:588,32
DA:590,8
DA:591,8
DA:594,24
DA:595,24
DA:597,8
DA:599,8
DA:601,0
DA:605,8
DA:607,8
DA:610,16
DA:611,16
DA:614,24
DA:617,0
DA:619,24
DA:621,24
DA:623,24
DA:625,24
DA:627,0
DA:628,0
DA:629,0
DA:630,24
DA:632,24
DA:634,24
DA:635,24
DA:637,24
DA:638,24
DA:640,24
DA:641,24
DA:650,0
DA:652,0
DA:655,0
DA:656,0
DA:657,0
DA:659,0
DA:661,0
DA:662,0
DA:667,0
DA:668,0
DA:669,0
DA:672,0
DA:676,0
DA:678,0
DA:680,0
DA:682,0
DA:683,0
DA:685,0
DA:689,0
DA:690,0
DA:691,0
DA:692,0
DA:694,0
DA:696,0
DA:697,0
DA:698,0
DA:700,0
DA:702,0
DA:704,0
DA:705,0
DA:707,0
DA:708,0
DA:709,0
DA:711,0
DA:713,0
DA:719,0
DA:721,0
DA:722,0
DA:726,0
DA:728,0
DA:730,0
DA:731,0
DA:734,0
DA:736,0
DA:737,0
DA:740,0
DA:742,0
DA:743,0
DA:745,0
DA:746,0
DA:747,0
DA:748,0
DA:750,0
DA:752,0
DA:753,0
DA:755,0
DA:756,0
DA:758,0
DA:760,0
DA:761,0
DA:763,24
DA:765,24
DA:767,0
DA:768,0
DA:771,24
DA:774,0
DA:775,0
DA:778,24
DA:779,24
DA:782,0
DA:785,24
DA:786,24
DA:787,24
DA:789,0
DA:791,0
DA:793,0
DA:794,0
DA:796,0
DA:797,0
DA:800,0
DA:802,0
DA:803,0
DA:804,0
DA:805,0
DA:806,0
DA:807,0
DA:808,0
DA:810,0
DA:813,0
DA:815,0
DA:817,0
DA:820,0
DA:821,0
DA:822,0
DA:823,0
DA:825,0
DA:827,0
DA:829,0
DA:831,0
DA:833,0
DA:835,0
DA:836,0
DA:838,0
DA:840,0
DA:842,0
DA:843,0
DA:844,0
DA:845,0
DA:847,0
DA:849,0
DA:851,0
DA:854,0
DA:855,0
DA:858,0
DA:859,0
DA:862,0
DA:864,0
DA:866,0
DA:868,0
DA:870,0
DA:872,0
DA:873,0
DA:874,0
DA:875,0
DA:876,0
DA:878,0
DA:880,0
DA:883,0
DA:885,0
DA:886,0
DA:892,0
DA:894,0
DA:897,0
DA:901,0
DA:902,0
DA:903,0
DA:905,0
DA:906,0
DA:907,0
DA:910,0
DA:912,0
DA:914,0
DA:916,0
DA:918,0
DA:921,0
DA:923,0
DA:924,0
DA:925,0
DA:926,0
DA:928,0
DA:930,0
DA:932,0
DA:934,0
DA:937,0
DA:940,0
DA:941,0
DA:942,0
DA:944,0
DA:946,0
DA:953,0
DA:955,0
DA:957,0
DA:958,0
DA:959,0
DA:960,0
DA:961,0
DA:964,0
DA:966,0
DA:968,0
DA:969,0
DA:970,0
DA:971,0
DA:972,0
DA:973,0
DA:975,0
DA:977,0
DA:978,0
DA:979,0
DA:981,0
DA:983,0
DA:985,0
DA:986,0
DA:987,0
DA:988,0
DA:989,0
DA:992,0
DA:994,0
DA:996,0
DA:997,0
DA:998,0
DA:999,0
DA:1000,0
DA:1001,0
DA:1003,0
DA:1005,0
DA:1006,0
DA:1007,0
DA:1018,0
DA:1020,0
DA:1021,0
DA:1024,0
DA:1025,0
DA:1026,0
DA:1027,0
DA:1029,0
DA:1031,0
DA:1033,0
DA:1034,0
DA:1035,0
DA:1036,0
DA:1037,0
DA:1038,0
DA:1040,0
DA:1041,0
DA:1042,0
DA:1043,0
DA:1045,0
DA:1046,0
DA:1047,0
DA:1057,0
DA:1059,0
DA:1060,0
DA:1065,0
DA:1066,0
DA:1067,0
DA:1068,0
DA:1070,0
DA:1071,0
DA:1072,0
DA:1073,0
DA:1075,0
DA:1077,0
DA:1079,0
DA:1080,0
DA:1081,0
DA:1082,0
DA:1083,0
DA:1084,0
DA:1085,0
DA:1086,0
DA:1087,0
DA:1090,0
DA:1092,0
DA:1093,0
DA:1095,0
DA:1096,0
DA:1097,0
DA:1100,0
DA:1102,0
DA:1103,0
DA:1104,0
DA:1105,0
DA:1106,0
DA:1107,0
DA:1108,0
DA:1110,0
DA:1111,0
DA:1112,0
DA:1113,0
DA:1115,0
DA:1116,0
DA:1118,0
DA:1140,0
DA:1142,0
DA:1145,0
DA:1147,0
DA:1150,0
DA:1151,0
DA:1152,0
DA:1153,0
DA:1155,0
DA:1157,0
DA:1160,0
DA:1163,0
DA:1165,0
DA:1167,0
DA:1169,0
DA:1170,0
DA:1173,0
DA:1174,0
DA:1175,0
DA:1176,0
DA:1179,0
DA:1180,0
DA:1183,0
DA:1184,0
DA:1186,0
DA:1188,0
DA:1189,0
DA:1191,0
DA:1192,0
DA:1193,0
DA:1196,0
DA:1197,0
DA:1200,0
DA:1201,0
DA:1203,0
DA:1204,0
DA:1205,0
DA:1208,0
DA:1210,0
DA:1212,0
DA:1213,0
DA:1215,0
DA:1217,0
DA:1218,0
DA:1219,0
DA:1221,0
DA:1224,0
DA:1225,0
DA:1226,0
DA:1229,0
DA:1232,0
DA:1233,0
DA:1234,0
DA:1235,0
DA:1240,0
DA:1241,0
DA:1243,0
DA:1244,0
DA:1245,0
DA:1246,0
DA:1249,0
DA:1250,0
DA:1251,0
DA:1252,0
DA:1257,0
DA:1260,0
DA:1262,0
DA:1265,0
DA:1267,0
DA:1270,0
DA:1272,0
DA:1275,0
DA:1277,0
DA:1280,0
DA:1281,0
DA:1288,0
DA:1290,0
DA:1293,0
DA:1294,0
DA:1295,0
DA:1297,0
DA:1299,0
DA:1301,0
DA:1302,0
DA:1303,0
DA:1304,0
DA:1305,0
DA:1306,0
DA:1308,0
DA:1309,0
DA:1310,0
DA:1312,0
DA:1313,0
DA:1314,0
DA:1316,0
DA:1318,0
DA:1320,0
DA:1322,0
DA:1324,0
DA:1325,0
DA:1326,0
DA:1327,0
DA:1328,0
DA:1329,0
DA:1330,0
DA:1331,0
DA:1332,0
DA:1333,0
DA:1336,0
DA:1338,0
DA:1339,0
DA:1341,0
DA:1342,0
DA:1343,0
DA:1349,0
DA:1351,0
DA:1354,0
DA:1355,0
DA:1357,0
DA:1359,0
DA:1361,0
DA:1362,0
DA:1363,0
DA:1364,0
DA:1365,0
DA:1366,0
DA:1367,0
DA:1368,0
DA:1369,0
DA:1370,0
DA:1372,0
DA:1374,0
DA:1375,0
DA:1377,0
DA:1378,0
DA:1379,0
DA:1381,0
DA:1383,0
DA:1386,0
DA:1387,0
DA:1389,0
DA:1391,0
DA:1393,0
DA:1394,0
DA:1395,0
DA:1396,0
DA:1397,0
DA:1398,0
DA:1399,0
DA:1400,0
DA:1401,0
DA:1402,0
DA:1404,0
DA:1406,0
DA:1407,0
DA:1409,0
DA:1410,0
DA:1411,0
DA:1418,0
DA:1420,0
DA:1422,0
DA:1424,0
DA:1426,0
DA:1427,0
DA:1428,0
DA:1429,0
DA:1430,0
DA:1431,0
DA:1443,0
DA:1445,0
DA:1446,0
DA:1448,0
DA:1450,0
DA:1454,0
DA:1455,0
DA:1457,0
DA:1461,0
DA:1463,0
DA:1464,0
DA:1468,0
DA:1470,0
DA:1471,0
DA:1472,0
DA:1476,0
DA:1477,0
DA:1479,0
DA:1480,0
DA:1481,0
DA:1482,0
DA:1483,0
DA:1484,0
DA:1485,0
DA:1486,0
DA:1488,0
DA:1492,0
DA:1493,0
DA:1496,0
DA:1500,0
DA:1504,0
DA:1506,0
DA:1508,0
DA:1511,0
DA:1512,0
DA:1515,0
DA:1516,0
DA:1519,0
DA:1520,0
DA:1522,0
DA:1526,0
DA:1527,0
DA:1530,0
DA:1532,0
DA:1534,0
DA:1535,0
DA:1536,0
DA:1538,0
DA:1539,0
DA:1540,0
DA:1543,0
DA:1545,0
DA:1546,0
DA:1548,0
DA:1550,0
DA:1552,0
DA:1554,0
DA:1556,0
DA:1560,0
DA:1561,0
DA:1562,0
DA:1563,0
DA:1564,0
DA:1566,0
DA:1568,0
DA:1569,0
DA:1576,0
DA:1578,0
DA:1581,0
DA:1582,0
DA:1584,0
DA:1586,0
DA:1588,0
DA:1589,0
DA:1591,0
DA:1592,0
DA:1593,0
DA:1594,0
DA:1595,0
DA:1596,0
DA:1597,0
DA:1598,0
DA:1599,0
DA:1602,0
DA:1604,0
DA:1605,0
DA:1607,0
DA:1608,0
DA:1609,0
DA:1611,0
DA:1613,0
DA:1616,0
DA:1617,0
DA:1619,0
DA:1621,0
DA:1623,0
DA:1624,0
DA:1626,0
DA:1627,0
DA:1628,0
DA:1629,0
DA:1630,0
DA:1631,0
DA:1632,0
DA:1633,0
DA:1634,0
DA:1637,0
DA:1639,0
DA:1640,0
DA:1642,0
DA:1643,0
DA:1644,0
DA:1651,0
DA:1653,0
DA:1656,0
DA:1657,0
DA:1660,0
DA:1662,0
DA:1664,0
DA:1666,0
DA:1668,0
DA:1670,0
DA:1672,0
DA:1673,0
DA:1674,0
DA:1675,0
DA:1676,0
DA:1678,0
DA:1679,0
DA:1682,0
DA:1683,0
DA:1684,0
DA:1685,0
DA:1686,0
DA:1687,0
DA:1688,0
DA:1689,0
DA:1690,0
DA:1691,0
DA:1693,0
DA:1694,0
DA:1695,0
DA:1702,0
DA:1704,0
DA:1707,0
DA:1708,0
DA:1710,0
DA:1714,0
DA:1716,0
DA:1717,0
DA:1719,0
DA:1720,0
DA:1725,0
DA:1727,0
DA:1728,0
DA:1730,0
DA:1734,0
DA:1736,0
DA:1738,0
DA:1740,0
DA:1745,0
DA:1747,0
DA:1748,0
DA:1749,0
DA:1751,0
DA:1756,0
DA:1758,0
DA:1759,0
DA:1770,0
DA:1774,0
DA:1776,0
DA:1778,1978950
DA:1782,1978950
DA:1784,3957900
DA:1785,1978950
DA:1786,1978950
DA:1788,1978950
DA:1792,1978950
DA:1794,0
DA:1795,0
DA:1797,0
DA:1798,0
DA:1803,0
DA:1805,0
DA:1807,1978950
DA:1808,1978950
DA:1810,0
DA:1811,0
DA:1815,1978950
DA:1816,1978950
DA:1842,1978950
DA:1848,26
DA:1850,26
DA:1852,26
DA:1857,0
DA:1860,0
DA:1862,0
DA:1867,26
DA:1869,26
DA:1871,0
DA:1872,0
DA:1876,4376
DA:1878,1983300
DA:1880,1978950
DA:1881,1978950
DA:1882,4350
DA:1884,26
DA:1888,0
DA:1890,26
DA:1897,0
DA:1899,0
DA:1902,0
DA:1904,0
DA:1908,0
DA:1909,0
DA:1910,0
DA:1914,0
DA:1917,0
DA:1919,0
DA:1921,0
DA:1923,0
DA:1926,0
DA:1928,0
DA:1932,0
DA:1933,0
DA:1934,0
DA:1938,0
DA:1941,0
DA:1943,0
DA:1945,0
DA:1947,0
DA:1950,0
DA:1952,0
DA:1956,0
DA:1959,0
DA:1962,0
DA:1965,0
DA:1966,0
DA:1967,0
DA:1970,0
DA:1971,0
DA:1972,0
DA:1975,0
DA:1978,0
DA:1979,0
DA:1980,0
DA:1981,0
DA:1984,0
DA:1986,0
DA:1987,0
DA:1990,0
DA:1992,0
DA:1993,0
DA:1997,0
DA:2000,0
DA:2002,0
DA:2005,0
DA:2008,0
DA:2010,0
DA:2013,0
DA:2015,0
DA:2017,0
DA:2028,0
DA:2030,0
DA:2033,0
DA:2034,0
DA:2036,0
DA:2037,0
DA:2040,0
DA:2041,0
DA:2043,0
DA:2044,0
DA:2045,0
DA:2048,0
DA:2050,0
DA:2051,0
DA:2052,0
DA:2056,0
DA:2058,0
DA:2059,0
DA:2060,0
DA:2063,0
DA:2064,0
DA:2066,0
DA:2068,0
DA:2070,0
DA:2072,0
DA:2073,0
DA:2075,0
DA:2076,0
DA:2079,0
DA:2080,0
DA:2081,0
DA:2083,0
DA:2084,0
DA:2085,0
DA:2095,0
DA:2097,0
DA:2098,0
DA:2100,0
DA:2102,0
DA:2103,0
DA:2105,0
DA:2106,0
DA:2107,0
DA:2109,0
DA:2110,0
DA:2111,0
DA:2112,0
DA:2113,0
DA:2115,0
DA:2117,0
DA:2119,0
DA:2121,0
DA:2122,0
DA:2123,0
DA:2125,0
DA:2126,0
DA:2128,0
DA:2129,0
DA:2132,26
DA:2134,26
DA:2135,26
DA:2139,26
DA:2141,26
DA:2142,0
DA:2143,0
DA:2145,26
DA:2147,26
DA:2150,26
DA:2151,0
DA:2153,26
DA:2155,26
DA:2158,0
DA:2159,0
DA:2161,26
DA:2162,26
DA:2163,26
DA:2164,26
DA:2166,26
DA:2167,26
DA:2168,26
DA:2170,26
DA:2172,26
DA:2173,26
DA:2178,0
DA:2180,0
DA:2181,0
DA:2183,0
DA:2184,0
DA:2187,0
DA:2188,0
DA:2189,0
DA:2190,0
DA:2191,0
DA:2192,0
DA:2193,0
DA:2195,0
DA:2196,0
DA:2199,0
DA:2200,0
DA:2201,0
DA:2202,0
DA:2208,0
DA:2209,0
DA:2210,0
DA:2211,0
DA:2212,0
DA:2215,0
DA:2216,0
DA:2217,0
DA:2218,0
DA:2219,0
DA:2223,0
DA:2226,0
DA:2227,0
DA:2229,0
DA:2231,0
DA:2233,0
DA:2236,0
DA:2238,0
DA:2240,0
DA:2241,0
DA:2243,0
DA:2246,0
DA:2247,0
DA:2248,0
DA:2250,0
DA:2253,0
DA:2255,0
DA:2256,0
DA:2257,0
DA:2259,0
DA:2262,0
DA:2264,0
DA:2265,0
DA:2268,0
DA:2270,0
DA:2271,0
DA:2272,0
LF:1121
LH:89
end_of_record
TN:
SF:/Users/trungpham/Documents/splashkit-core/coresdk/src/backend/input_driver.cpp
FNL:0,0,29
FNA:0,4,__cxx_global_var_init
FNA:0,4,__cxx_global_var_init.1
FNL:1,298,305
FNA:1,0,_ZN13splashkit_lib18_stop_reading_textEPNS_12_window_dataE
FNL:2,307,371
FNA:2,0,_ZN13splashkit_lib16_handle_key_typeEi
FNL:3,31,296
FNA:3,2,_ZN13splashkit_lib14_init_key_mapsEv
FNL:4,373,381
FNA:4,0,_ZN13splashkit_lib18_handle_input_textEPc
FNL:5,383,390
FNA:5,0,_ZN13splashkit_lib20_handle_editing_textEPcii
FNL:6,392,412
FNA:6,0,_ZN13splashkit_lib21sk_start_reading_textEPNS_12_window_dataEddddNSt3__112basic_stringIcNS2_11char_traitsIcEENS2_9allocatorIcEEEE
FNL:7,414,422
FNA:7,0,_ZN13splashkit_lib19sk_end_reading_textEv
FNL:8,424,433
FNA:8,0,_ZN13splashkit_lib20window_for_window_beEPNS_12sk_window_beE
FNL:9,435,459
FNA:9,0,_ZN13splashkit_lib17_handle_new_focusEPNS_12sk_window_beE
FNL:10,461,539
FNA:10,0,_ZN13splashkit_lib23_sk_handle_window_eventEP9SDL_Event
FNL:11,541,668
FNA:11,0,_ZN13splashkit_lib17sk_process_eventsEv
FNL:12,670,680
FNA:12,0,_ZN13splashkit_lib25sk_window_close_requestedEPNS_18sk_drawing_surfaceE
FNL:13,682,696
FNA:13,0,_ZN13splashkit_lib14sk_key_pressedEi
FNL:14,700,707
FNA:14,0,_ZN13splashkit_lib27sk_start_unicode_text_inputEiiii
FNL:15,709,730
FNA:15,0,_ZN13splashkit_lib13sk_warp_mouseEPNS_18sk_drawing_surfaceEii
FNL:16,732,735
FNA:16,0,_ZN13splashkit_lib15sk_focus_windowEv
FNL:17,738,759
FNA:17,0,_ZN13splashkit_lib18sk_window_positionEPNS_18sk_drawing_surfaceEPiS2_
FNL:18,761,780
FNA:18,0,_ZN13splashkit_lib24sk_get_window_event_dataEPNS_18sk_drawing_surfaceE
FNL:19,782,800
FNA:19,0,_ZN13splashkit_lib14sk_move_windowEPNS_18sk_drawing_surfaceEii
FNL:20,802,809
FNA:20,0,_ZN13splashkit_lib17sk_mouse_positionERdS0_
FNL:21,811,818
FNA:21,0,_ZN13splashkit_lib17sk_mouse_movementERdS0_
FNL:22,820,823
FNA:22,0,_ZN13splashkit_lib20sk_mouse_button_downEj
FNL:23,826,831
FNA:23,0,_ZN13splashkit_lib13sk_show_mouseEi
FNL:24,833,835
FNA:24,0,_ZN13splashkit_lib11sk_key_nameENS_8key_codeE
FNF:25
FNH:2
DA:28,4
DA:29,4
DA:31,2
DA:33,2
DA:35,2
DA:36,2
DA:37,2
DA:38,2
DA:39,2
DA:40,2
DA:41,2
DA:42,2
DA:43,2
DA:44,2
DA:45,2
DA:46,2
DA:47,2
DA:48,2
DA:49,2
DA:50,2
DA:51,2
DA:52,2
DA:53,2
DA:54,2
DA:55,2
DA:56,2
DA:57,2
DA:58,2
DA:59,2
DA:60,2
DA:61,2
DA:62,2
DA:63,2
DA:64,2
DA:65,2
DA:66,2
DA:67,2
DA:68,2
DA:69,2
DA:70,2
DA:71,2
DA:72,2
DA:73,2
DA:74,2
DA:75,2
DA:76,2
DA:77,2
DA:78,2
DA:79,2
DA:80,2
DA:81,2
DA:82,2
DA:83,2
DA:84,2
DA:85,2
DA:86,2
DA:87,2
DA:88,2
DA:89,2
DA:90,2
DA:91,2
DA:92,2
DA:93,2
DA:94,2
DA:95,2
DA:96,2
DA:97,2
DA:98,2
DA:99,2
DA:100,2
DA:101,2
DA:102,2
DA:103,2
DA:104,2
DA:105,2
DA:106,2
DA:107,2
DA:108,2
DA:109,2
DA:110,2
DA:111,2
DA:112,2
DA:113,2
DA:114,2
DA:115,2
DA:116,2
DA:117,2
DA:118,2
DA:119,2
DA:120,2
DA:121,2
DA:122,2
DA:123,2
DA:124,2
DA:125,2
DA:126,2
DA:127,2
DA:128,2
DA:129,2
DA:130,2
DA:131,2
DA:132,2
DA:133,2
DA:134,2
DA:135,2
DA:136,2
DA:137,2
DA:138,2
DA:139,2
DA:140,2
DA:141,2
DA:142,2
DA:143,2
DA:144,2
DA:145,2
DA:146,2
DA:147,2
DA:148,2
DA:149,2
DA:150,2
DA:151,2
DA:152,2
DA:153,2
DA:154,2
DA:155,2
DA:156,2
DA:157,2
DA:158,2
DA:159,2
DA:160,2
DA:161,2
DA:162,2
DA:163,2
DA:167,2
DA:168,2
DA:169,2
DA:170,2
DA:171,2
DA:172,2
DA:173,2
DA:174,2
DA:175,2
DA:176,2
DA:177,2
DA:178,2
DA:179,2
DA:180,2
DA:181,2
DA:182,2
DA:183,2
DA:184,2
DA:185,2
DA:186,2
DA:187,2
DA:188,2
DA:189,2
DA:190,2
DA:191,2
DA:192,2
DA:193,2
DA:194,2
DA:195,2
DA:196,2
DA:197,2
DA:198,2
DA:199,2
DA:200,2
DA:201,2
DA:202,2
DA:203,2
DA:204,2
DA:205,2
DA:206,2
DA:207,2
DA:208,2
DA:209,2
DA:210,2
DA:211,2
DA:212,2
DA:213,2
DA:214,2
DA:215,2
DA:216,2
DA:217,2
DA:218,2
DA:219,2
DA:220,2
DA:221,2
DA:222,2
DA:223,2
DA:224,2
DA:225,2
DA:226,2
DA:227,2
DA:228,2
DA:229,2
DA:230,2
DA:231,2
DA:232,2
DA:233,2
DA:234,2
DA:235,2
DA:236,2
DA:237,2
DA:238,2
DA:239,2
DA:240,2
DA:241,2
DA:242,2
DA:243,2
DA:244,2
DA:245,2
DA:246,2
DA:247,2
DA:248,2
DA:249,2
DA:250,2
DA:251,2
DA:252,2
DA:253,2
DA:254,2
DA:255,2
DA:256,2
DA:257,2
DA:258,2
DA:259,2
DA:260,2
DA:261,2
DA:262,2
DA:263,2
DA:264,2
DA:265,2
DA:266,2
DA:267,2
DA:268,2
DA:269,2
DA:270,2
DA:271,2
DA:272,2
DA:273,2
DA:274,2
DA:275,2
DA:276,2
DA:277,2
DA:278,2
DA:279,2
DA:280,2
DA:281,2
DA:282,2
DA:283,2
DA:284,2
DA:285,2
DA:286,2
DA:287,2
DA:288,2
DA:289,2
DA:290,2
DA:291,2
DA:292,2
DA:293,2
DA:294,2
DA:295,2
DA:296,2
DA:298,0
DA:300,0
DA:302,0
DA:303,0
DA:304,0
DA:305,0
DA:307,0
DA:309,0
DA:311,0
DA:312,0
DA:314,0
DA:318,0
DA:319,0
DA:320,0
DA:321,0
DA:322,0
DA:329,0
DA:330,0
DA:331,0
DA:337,0
DA:342,0
DA:343,0
DA:344,0
DA:350,0
DA:355,0
DA:356,0
DA:357,0
DA:362,0
DA:363,0
DA:364,0
DA:365,0
DA:369,0
DA:371,0
DA:373,0
DA:375,0
DA:376,0
DA:378,0
DA:379,0
DA:380,0
DA:381,0
DA:383,0
DA:385,0
DA:386,0
DA:388,0
DA:389,0
DA:390,0
DA:392,0
DA:394,0
DA:395,0
DA:396,0
DA:397,0
DA:398,0
DA:401,0
DA:402,0
DA:403,0
DA:404,0
DA:405,0
DA:407,0
DA:409,0
DA:410,0
DA:411,0
DA:412,0
DA:414,0
DA:416,0
DA:417,0
DA:419,0
DA:421,0
DA:422,0
DA:424,0
DA:426,0
DA:428,0
DA:429,0
DA:430,0
DA:432,0
DA:433,0
DA:435,0
DA:437,0
DA:439,0
DA:441,0
DA:445,0
DA:446,0
DA:447,0
DA:448,0
DA:449,0
DA:450,0
DA:451,0
DA:454,0
DA:456,0
DA:457,0
DA:459,0
DA:461,0
DA:463,0
DA:465,0
DA:466,0
DA:469,0
DA:472,0
DA:474,0
DA:476,0
DA:478,0
DA:481,0
DA:486,0
DA:488,0
DA:489,0
DA:491,0
DA:493,0
DA:495,0
DA:496,0
DA:498,0
DA:501,0
DA:504,0
DA:507,0
DA:509,0
DA:512,0
DA:515,0
DA:516,0
DA:518,0
DA:519,0
DA:520,0
DA:521,0
DA:524,0
DA:526,0
DA:529,0
DA:532,0
DA:533,0
DA:537,0
DA:539,0
DA:541,0
DA:543,0
DA:546,0
DA:548,0
DA:552,0
DA:553,0
DA:559,0
DA:561,0
DA:562,0
DA:563,0
DA:568,0
DA:570,0
DA:571,0
DA:572,0
DA:574,0
DA:576,0
DA:581,0
DA:583,0
DA:584,0
DA:585,0
DA:586,0
DA:588,0
DA:590,0
DA:595,0
DA:597,0
DA:598,0
DA:599,0
DA:601,0
DA:603,0
DA:608,0
DA:610,0
DA:611,0
DA:612,0
DA:614,0
DA:616,0
DA:621,0
DA:623,0
DA:624,0
DA:626,0
DA:628,0
DA:635,0
DA:636,0
DA:637,0
DA:639,0
DA:641,0
DA:648,0
DA:650,0
DA:653,0
DA:655,0
DA:660,0
DA:662,0
DA:667,0
DA:668,0
DA:670,0
DA:672,0
DA:674,0
DA:676,0
DA:678,0
DA:679,0
DA:680,0
DA:682,0
DA:684,0
DA:687,0
DA:690,0
DA:692,0
DA:694,0
DA:695,0
DA:696,0
DA:700,0
DA:702,0
DA:703,0
DA:704,0
DA:706,0
DA:707,0
DA:709,0
DA:711,0
DA:713,0
DA:718,0
DA:720,0
DA:721,0
DA:725,0
DA:728,0
DA:730,0
DA:732,0
DA:734,0
DA:735,0
DA:738,0
DA:740,0
DA:742,0
DA:747,0
DA:749,0
DA:750,0
DA:754,0
DA:757,0
DA:759,0
DA:761,0
DA:763,0
DA:765,0
DA:767,0
DA:772,0
DA:774,0
DA:778,0
DA:780,0
DA:782,0
DA:784,0
DA:786,0
DA:791,0
DA:793,0
DA:795,0
DA:799,0
DA:800,0
DA:802,0
DA:804,0
DA:806,0
DA:807,0
DA:808,0
DA:809,0
DA:811,0
DA:813,0
DA:815,0
DA:816,0
DA:817,0
DA:818,0
DA:820,0
DA:822,0
DA:823,0
DA:826,0
DA:828,0
DA:829,0
DA:830,0
DA:831,0
DA:833,0
DA:835,0
LF:522
LH:263
end_of_record
TN:
SF:/Users/trungpham/Documents/splashkit-core/coresdk/src/backend/interface_driver.cpp
FNL:0,0,38
FNA:0,4,__cxx_global_var_init
FNA:0,4,__cxx_global_var_init.1
FNL:1,106,126
FNA:1,0,_ZN13splashkit_lib12_text_heightEPv
FNL:2,129,138
FNA:2,0,_ZN13splashkit_lib26sk_interface_register_iconEPNS_18sk_drawing_surfaceERA4_KdRA7_S2_NS_16sk_renderer_flipE
FNL:3,141,149
FNA:3,0,_ZN13splashkit_lib20_get_registered_iconEi
FNL:4,153,155
FNA:4,0,_ZN13splashkit_lib5to_muENS_9rectangleE
FNL:5,158,164
FNA:5,0,_ZN13splashkit_lib5to_muENS_5colorE
FNL:6,168,170
FNA:6,0,_ZN13splashkit_lib7from_muE7mu_Rect
FNL:7,173,175
FNA:7,0,_ZN13splashkit_lib7from_muE8mu_Color
FNL:8,179,180
FNA:8,0,_ZN13splashkit_libL11expand_rectE7mu_Recti
FNL:9,182,189
FNA:9,0,_ZN13splashkit_libL15intersect_rectsE7mu_RectS0_
FNL:10,200,214
FNA:10,0,_ZN13splashkit_lib17draw_blurred_rectEP10mu_Context7mu_Rect8mu_Colori
FNL:11,216,246
FNA:11,0,_ZN13splashkit_libL10draw_frameEP10mu_Context7mu_Recti
FNL:12,250,268
FNA:12,0,_ZN13splashkit_lib12get_ui_atlasEv
FNL:13,272,298
FNA:13,2,_ZN13splashkit_lib17sk_interface_initEv
FNL:14,300,306
FNA:14,0,_ZN13splashkit_lib36sk_interface_set_init_style_callbackEPFvvE
FNL:15,308,395
FNA:15,0,_ZN13splashkit_lib17sk_interface_drawENS_15drawing_optionsE
FNL:16,38,79
FNA:16,2,_ZN13splashkit_lib30_initialize_button_and_key_mapEv
FNL:17,397,403
FNA:17,0,_ZN13splashkit_lib27sk_interface_style_set_fontEPNS_12sk_font_dataE
FNL:18,405,411
FNA:18,0,_ZN13splashkit_lib32sk_interface_style_set_font_sizeEi
FNL:19,413,433
FNA:19,0,_ZN13splashkit_lib18sk_interface_startEv
FNL:20,435,450
FNA:20,0,_ZN13splashkit_lib16sk_interface_endEv
FNL:21,452,454
FNA:21,0,_ZN13splashkit_lib23sk_interface_is_startedEv
FNL:22,457,466
FNA:22,0,_ZN13splashkit_lib29sk_interface_capacity_limitedEv
FNL:23,470,472
FNA:23,0,_ZN13splashkit_lib24sk_interface_start_panelERKNSt3__112basic_stringIcNS0_11char_traitsIcEENS0_9allocatorIcEEEENS_9rectangleE
FNL:24,475,478
FNA:24,0,_ZN13splashkit_lib22sk_interface_end_panelEv
FNL:25,480,482
FNA:25,0,_ZN13splashkit_lib24sk_interface_start_popupERKNSt3__112basic_stringIcNS0_11char_traitsIcEENS0_9allocatorIcEEEE
FNL:26,485,488
FNA:26,0,_ZN13splashkit_lib22sk_interface_end_popupEv
FNL:27,490,493
FNA:27,0,_ZN13splashkit_lib24sk_interface_start_insetERKNSt3__112basic_stringIcNS0_11char_traitsIcEENS0_9allocatorIcEEEE
FNL:28,495,498
FNA:28,0,_ZN13splashkit_lib22sk_interface_end_insetEv
FNL:29,500,502
FNA:29,0,_ZN13splashkit_lib27sk_interface_start_treenodeERKNSt3__112basic_stringIcNS0_11char_traitsIcEENS0_9allocatorIcEEEE
FNL:30,505,508
FNA:30,0,_ZN13splashkit_lib25sk_interface_end_treenodeEv
FNL:31,510,513
FNA:31,0,_ZN13splashkit_lib23sk_interface_open_popupERKNSt3__112basic_stringIcNS0_11char_traitsIcEENS0_9allocatorIcEEEE
FNL:32,515,518
FNA:32,0,_ZN13splashkit_lib23sk_interface_set_layoutEiPii
FNL:33,520,523
FNA:33,0,_ZN13splashkit_lib28sk_interface_set_layout_nextERKNS_9rectangleEb
FNL:34,525,528
FNA:34,0,_ZN13splashkit_lib29sk_interface_set_layout_widthEi
FNL:35,530,533
FNA:35,0,_ZN13splashkit_lib30sk_interface_set_layout_heightEi
FNL:36,535,538
FNA:36,0,_ZN13splashkit_lib25sk_interface_start_columnEv
FNL:37,540,543
FNA:37,0,_ZN13splashkit_lib23sk_interface_end_columnEv
FNL:38,545,547
FNA:38,0,_ZN13splashkit_lib32sk_interface_get_container_widthEv
FNL:39,550,552
FNA:39,0,_ZN13splashkit_lib33sk_interface_get_container_heightEv
FNL:40,555,560
FNA:40,0,_ZN13splashkit_lib29sk_interface_get_layout_widthEv
FNL:41,562,567
FNA:41,0,_ZN13splashkit_lib30sk_interface_get_layout_heightEv
FNL:42,569,573
FNA:42,0,_ZN13splashkit_lib23update_elements_changedEi
FNL:43,575,578
FNA:43,0,_ZN13splashkit_lib24sk_interface_push_ptr_idEPv
FNL:44,580,583
FNA:44,0,_ZN13splashkit_lib19sk_interface_pop_idEv
FNL:45,585,587
FNA:45,0,_ZN13splashkit_lib19sk_interface_headerERKNSt3__112basic_stringIcNS0_11char_traitsIcEENS0_9allocatorIcEEEE
FNL:46,590,593
FNA:46,0,_ZN13splashkit_lib18sk_interface_labelERKNSt3__112basic_stringIcNS0_11char_traitsIcEENS0_9allocatorIcEEEE
FNL:47,595,598
FNA:47,0,_ZN13splashkit_lib17sk_interface_textERKNSt3__112basic_stringIcNS0_11char_traitsIcEENS0_9allocatorIcEEEE
FNL:48,600,603
FNA:48,0,_ZN13splashkit_lib19sk_interface_buttonERKNSt3__112basic_stringIcNS0_11char_traitsIcEENS0_9allocatorIcEEEEi
FNL:49,606,614
FNA:49,0,_ZN13splashkit_lib21sk_interface_checkboxERKNSt3__112basic_stringIcNS0_11char_traitsIcEENS0_9allocatorIcEEEERKb
FNL:50,617,625
FNA:50,0,_ZN13splashkit_lib19sk_interface_sliderERKfff
FNL:51,628,636
FNA:51,0,_ZN13splashkit_lib19sk_interface_numberERKff
FNL:52,639,676
FNA:52,0,_ZN13splashkit_lib21sk_interface_text_boxERKNSt3__112basic_stringIcNS0_11char_traitsIcEENS0_9allocatorIcEEEE
FNL:53,678,683
FNA:53,0,_ZN13splashkit_lib22sk_interface_color_boxENS_5colorE
FNL:54,685,687
FNA:54,0,_ZN13splashkit_lib20sk_interface_changedEv
FNL:55,690,692
FNA:55,0,_ZN13splashkit_lib22sk_interface_confirmedEv
FNL:56,695,697
FNA:56,0,_ZN13splashkit_lib24sk_interface_get_contextEv
FNL:57,700,703
FNA:57,0,_ZN13splashkit_lib22sk_interface_mousemoveEii
FNL:58,705,708
FNA:58,0,_ZN13splashkit_lib19sk_interface_scrollEii
FNL:59,710,713
FNA:59,0,_ZN13splashkit_lib17sk_interface_textEPc
FNL:60,715,719
FNA:60,0,_ZN13splashkit_lib22sk_interface_mousedownEiii
FNL:61,721,725
FNA:61,0,_ZN13splashkit_lib20sk_interface_mouseupEiii
FNL:62,727,731
FNA:62,0,_ZN13splashkit_lib20sk_interface_keydownEi
FNL:63,733,737
FNA:63,0,_ZN13splashkit_lib18sk_interface_keyupEi
FNL:64,739,748
FNA:64,2,_ZN13splashkit_lib24sk_interface_style_resetEv
FNL:65,750,753
FNA:65,0,_ZN13splashkit_lib35sk_interface_style_set_border_colorENS_5colorE
FNL:66,755,758
FNA:66,0,_ZN13splashkit_lib33sk_interface_style_set_text_colorENS_5colorE
FNL:67,760,763
FNA:67,0,_ZN13splashkit_lib34sk_interface_style_set_title_colorENS_5colorE
FNL:68,765,768
FNA:68,0,_ZN13splashkit_lib37sk_interface_style_set_titlebar_colorENS_5colorE
FNL:69,770,773
FNA:69,0,_ZN13splashkit_lib34sk_interface_style_set_panel_colorENS_5colorE
FNL:70,775,778
FNA:70,0,_ZN13splashkit_lib34sk_interface_style_set_inset_colorENS_5colorE
FNL:71,780,783
FNA:71,0,_ZN13splashkit_lib35sk_interface_style_set_button_colorENS_5colorE
FNL:72,785,789
FNA:72,0,_ZN13splashkit_lib43sk_interface_style_set_button_accent_colorsENS_5colorES0_
FNL:73,791,794
FNA:73,0,_ZN13splashkit_lib36sk_interface_style_set_control_colorENS_5colorE
FNL:74,796,800
FNA:74,0,_ZN13splashkit_lib44sk_interface_style_set_control_accent_colorsENS_5colorES0_
FNL:75,802,805
FNA:75,0,_ZN13splashkit_lib40sk_interface_style_set_scroll_base_colorENS_5colorE
FNL:76,807,810
FNA:76,0,_ZN13splashkit_lib38sk_interface_style_set_scrollbar_colorENS_5colorE
FNL:77,812,815
FNA:77,0,_ZN13splashkit_lib41sk_interface_style_set_panel_shadow_colorENS_5colorE
FNL:78,817,820
FNA:78,0,_ZN13splashkit_lib42sk_interface_style_set_panel_shadow_radiusEi
FNL:79,82,84
FNA:79,0,_ZN13splashkit_lib19_add_font_size_pairEPNS_12sk_font_dataEi
FNL:80,822,825
FNA:80,0,_ZN13splashkit_lib42sk_interface_style_set_panel_shadow_offsetENS_8point_2dE
FNL:81,827,830
FNA:81,0,_ZN13splashkit_lib43sk_interface_style_set_element_shadow_colorENS_5colorE
FNL:82,832,835
FNA:82,0,_ZN13splashkit_lib44sk_interface_style_set_element_shadow_radiusEi
FNL:83,837,840
FNA:83,0,_ZN13splashkit_lib44sk_interface_style_set_element_shadow_offsetENS_8point_2dE
FNL:84,842,845
FNA:84,0,_ZN13splashkit_lib30sk_interface_style_set_paddingEi
FNL:85,847,850
FNA:85,0,_ZN13splashkit_lib30sk_interface_style_set_spacingEi
FNL:86,852,855
FNA:86,0,_ZN13splashkit_lib29sk_interface_style_set_indentEi
FNL:87,857,860
FNA:87,0,_ZN13splashkit_lib35sk_interface_style_set_title_heightEi
FNL:88,862,865
FNA:88,0,_ZN13splashkit_lib37sk_interface_style_set_scrollbar_sizeEi
FNL:89,867,870
FNA:89,0,_ZN13splashkit_lib33sk_interface_style_set_thumb_sizeEi
FNL:90,872,874
FNA:90,0,_ZN13splashkit_lib30sk_interface_style_get_paddingEv
FNL:91,876,878
FNA:91,0,_ZN13splashkit_lib30sk_interface_style_get_spacingEv
FNL:92,88,90
FNA:92,0,_ZN13splashkit_lib19_get_font_size_pairEPv
FNL:93,887,927
FNA:93,0,_ZN13splashkit_lib24sk_interface_set_enabledEb
FNL:94,929,931
FNA:94,0,_ZN13splashkit_lib23sk_interface_is_enabledEv
FNL:95,93,104
FNA:95,0,_ZN13splashkit_lib11_text_widthEPvPKci
FNF:96
FNH:4
DA:38,2
DA:40,2
DA:41,2
DA:42,2
DA:44,2
DA:45,2
DA:46,2
DA:47,2
DA:48,2
DA:49,2
DA:50,2
DA:51,2
DA:52,2
DA:79,4
DA:82,0
DA:84,0
DA:88,0
DA:90,0
DA:93,0
DA:95,0
DA:97,0
DA:99,0
DA:102,0
DA:103,0
DA:104,0
DA:106,0
DA:108,0
DA:110,0
DA:112,0
DA:113,0
DA:126,4
DA:129,0
DA:131,0
DA:132,0
DA:133,0
DA:134,0
DA:135,0
DA:138,0
DA:141,0
DA:143,0
DA:145,0
DA:146,0
DA:148,0
DA:149,0
DA:153,0
DA:155,0
DA:158,0
DA:160,0
DA:161,0
DA:162,0
DA:163,0
DA:164,0
DA:168,0
DA:170,0
DA:173,0
DA:175,0
DA:179,0
DA:180,0
DA:182,0
DA:183,0
DA:184,0
DA:185,0
DA:186,0
DA:187,0
DA:188,0
DA:189,0
DA:200,0
DA:201,0
DA:203,0
DA:204,0
DA:205,0
DA:207,0
DA:208,0
DA:209,0
DA:210,0
DA:212,0
DA:213,0
DA:214,0
DA:216,0
DA:217,0
DA:220,0
DA:221,0
DA:222,0
DA:223,0
DA:224,0
DA:225,0
DA:226,0
DA:227,0
DA:228,0
DA:230,0
DA:231,0
DA:232,0
DA:233,0
DA:234,0
DA:237,0
DA:238,0
DA:240,0
DA:241,0
DA:244,0
DA:245,0
DA:246,0
DA:250,0
DA:255,0
DA:257,0
DA:260,0
DA:261,0
DA:262,0
DA:264,0
DA:265,0
DA:266,0
DA:268,0
DA:272,2
DA:274,2
DA:275,2
DA:277,2
DA:278,2
DA:279,2
DA:280,2
DA:281,2
DA:283,2
DA:284,2
DA:286,2
DA:287,0
DA:291,2
DA:292,2
DA:293,2
DA:294,2
DA:295,2
DA:297,2
DA:298,2
DA:300,0
DA:302,0
DA:304,0
DA:305,0
DA:306,0
DA:308,0
DA:310,0
DA:314,0
DA:316,0
DA:318,0
DA:320,0
DA:321,0
DA:323,0
DA:327,0
DA:329,0
DA:330,0
DA:332,0
DA:335,0
DA:337,0
DA:341,0
DA:342,0
DA:344,0
DA:353,0
DA:355,0
DA:356,0
DA:358,0
DA:359,0
DA:360,0
DA:361,0
DA:362,0
DA:365,0
DA:367,0
DA:368,0
DA:369,0
DA:370,0
DA:372,0
DA:373,0
DA:374,0
DA:375,0
DA:376,0
DA:377,0
DA:378,0
DA:380,0
DA:382,0
DA:383,0
DA:386,0
DA:389,0
DA:391,0
DA:394,0
DA:395,0
DA:397,0
DA:399,0
DA:401,0
DA:402,0
DA:403,0
DA:405,0
DA:407,0
DA:409,0
DA:410,0
DA:411,0
DA:413,0
DA:415,0
DA:416,0
DA:417,0
DA:420,0
DA:422,0
DA:423,0
DA:426,0
DA:430,0
DA:431,0
DA:432,0
DA:433,0
DA:435,0
DA:438,0
DA:440,0
DA:441,0
DA:445,0
DA:447,0
DA:448,0
DA:449,0
DA:450,0
DA:452,0
DA:454,0
DA:457,0
DA:460,0
DA:461,0
DA:462,0
DA:463,0
DA:464,0
DA:465,0
DA:466,0
DA:470,0
DA:472,0
DA:475,0
DA:477,0
DA:478,0
DA:480,0
DA:482,0
DA:485,0
DA:487,0
DA:488,0
DA:490,0
DA:492,0
DA:493,0
DA:495,0
DA:497,0
DA:498,0
DA:500,0
DA:502,0
DA:505,0
DA:507,0
DA:508,0
DA:510,0
DA:512,0
DA:513,0
DA:515,0
DA:517,0
DA:518,0
DA:520,0
DA:522,0
DA:523,0
DA:525,0
DA:527,0
DA:528,0
DA:530,0
DA:532,0
DA:533,0
DA:535,0
DA:537,0
DA:538,0
DA:540,0
DA:542,0
DA:543,0
DA:545,0
DA:547,0
DA:550,0
DA:552,0
DA:555,0
DA:557,0
DA:559,0
DA:560,0
DA:562,0
DA:564,0
DA:566,0
DA:567,0
DA:569,0
DA:571,0
DA:572,0
DA:573,0
DA:575,0
DA:577,0
DA:578,0
DA:580,0
DA:582,0
DA:583,0
DA:585,0
DA:587,0
DA:590,0
DA:592,0
DA:593,0
DA:595,0
DA:597,0
DA:598,0
DA:600,0
DA:602,0
DA:603,0
DA:606,0
DA:608,0
DA:610,0
DA:611,0
DA:613,0
DA:614,0
DA:617,0
DA:619,0
DA:621,0
DA:622,0
DA:624,0
DA:625,0
DA:628,0
DA:630,0
DA:632,0
DA:633,0
DA:635,0
DA:636,0
DA:639,0
DA:641,0
DA:642,0
DA:643,0
DA:650,0
DA:653,0
DA:654,0
DA:656,0
DA:658,0
DA:660,0
DA:663,0
DA:666,0
DA:667,0
DA:668,0
DA:669,0
DA:672,0
DA:673,0
DA:675,0
DA:676,0
DA:678,0
DA:680,0
DA:681,0
DA:682,0
DA:683,0
DA:685,0
DA:687,0
DA:690,0
DA:692,0
DA:695,0
DA:697,0
DA:700,0
DA:702,0
DA:703,0
DA:705,0
DA:707,0
DA:708,0
DA:710,0
DA:712,0
DA:713,0
DA:715,0
DA:717,0
DA:718,0
DA:719,0
DA:721,0
DA:723,0
DA:724,0
DA:725,0
DA:727,0
DA:729,0
DA:730,0
DA:731,0
DA:733,0
DA:735,0
DA:736,0
DA:737,0
DA:739,2
DA:741,2
DA:742,2
DA:743,2
DA:744,2
DA:745,2
DA:746,2
DA:747,2
DA:748,2
DA:750,0
DA:752,0
DA:753,0
DA:755,0
DA:757,0
DA:758,0
DA:760,0
DA:762,0
DA:763,0
DA:765,0
DA:767,0
DA:768,0
DA:770,0
DA:772,0
DA:773,0
DA:775,0
DA:777,0
DA:778,0
DA:780,0
DA:782,0
DA:783,0
DA:785,0
DA:787,0
DA:788,0
DA:789,0
DA:791,0
DA:793,0
DA:794,0
DA:796,0
DA:798,0
DA:799,0
DA:800,0
DA:802,0
DA:804,0
DA:805,0
DA:807,0
DA:809,0
DA:810,0
DA:812,0
DA:814,0
DA:815,0
DA:817,0
DA:819,0
DA:820,0
DA:822,0
DA:824,0
DA:825,0
DA:827,0
DA:829,0
DA:830,0
DA:832,0
DA:834,0
DA:835,0
DA:837,0
DA:839,0
DA:840,0
DA:842,0
DA:844,0
DA:845,0
DA:847,0
DA:849,0
DA:850,0
DA:852,0
DA:854,0
DA:855,0
DA:857,0
DA:859,0
DA:860,0
DA:862,0
DA:864,0
DA:865,0
DA:867,0
DA:869,0
DA:870,0
DA:872,0
DA:874,0
DA:876,0
DA:878,0
DA:887,0
DA:897,0
DA:898,0
DA:900,0
DA:902,0
DA:904,0
DA:905,0
DA:906,0
DA:907,0
DA:908,0
DA:909,0
DA:910,0
DA:913,0
DA:914,0
DA:915,0
DA:916,0
DA:917,0
DA:918,0
DA:920,0
DA:921,0
DA:922,0
DA:923,0
DA:924,0
DA:925,0
DA:927,0
DA:929,0
DA:931,0
LF:483
LH:42
end_of_record
TN:
SF:/Users/trungpham/Documents/splashkit-core/coresdk/src/backend/interface_driver_atlas.h
FNL:0,917,1019
FNA:0,2,_ZN13splashkit_lib21_initialize_atlas_mapEv
FNF:1
FNH:1
DA:917,2
DA:918,2
DA:919,2
DA:920,2
DA:921,2
DA:922,2
DA:923,2
DA:924,2
DA:925,2
DA:926,2
DA:927,2
DA:928,2
DA:929,2
DA:930,2
DA:931,2
DA:932,2
DA:933,2
DA:934,2
DA:935,2
DA:936,2
DA:937,2
DA:938,2
DA:939,2
DA:940,2
DA:941,2
DA:942,2
DA:943,2
DA:944,2
DA:945,2
DA:946,2
DA:947,2
DA:948,2
DA:949,2
DA:950,2
DA:951,2
DA:952,2
DA:953,2
DA:954,2
DA:955,2
DA:956,2
DA:957,2
DA:958,2
DA:959,2
DA:960,2
DA:961,2
DA:962,2
DA:963,2
DA:964,2
DA:965,2
DA:966,2
DA:967,2
DA:968,2
DA:969,2
DA:970,2
DA:971,2
DA:972,2
DA:973,2
DA:974,2
DA:975,2
DA:976,2
DA:977,2
DA:978,2
DA:979,2
DA:980,2
DA:981,2
DA:982,2
DA:983,2
DA:984,2
DA:985,2
DA:986,2
DA:987,2
DA:988,2
DA:989,2
DA:990,2
DA:991,2
DA:992,2
DA:993,2
DA:994,2
DA:995,2
DA:996,2
DA:997,2
DA:998,2
DA:999,2
DA:1000,2
DA:1001,2
DA:1002,2
DA:1003,2
DA:1004,2
DA:1005,2
DA:1006,2
DA:1007,2
DA:1008,2
DA:1009,2
DA:1010,2
DA:1011,2
DA:1012,2
DA:1013,2
DA:1014,2
DA:1015,2
DA:1016,2
DA:1017,2
DA:1018,2
DA:1019,2
LF:103
LH:103
end_of_record
TN:
SF:/Users/trungpham/Documents/splashkit-core/coresdk/src/backend/json_driver.cpp
FNL:0,13,20
FNA:0,34,_ZN13splashkit_lib14sk_delete_jsonEPNS_7sk_jsonE
FNL:1,22,37
FNA:1,0,_ZN13splashkit_lib19json_type_to_stringEN8nlohmann6detail7value_tE
FNF:2
FNH:1
DA:13,34
DA:15,34
DA:17,34
DA:18,34
DA:19,34
DA:20,34
DA:22,0
DA:24,0
DA:26,0
DA:27,0
DA:28,0
DA:29,0
DA:30,0
DA:31,0
DA:32,0
DA:33,0
DA:34,0
DA:35,0
DA:37,0
LF:19
LH:6
end_of_record
TN:
SF:/Users/trungpham/Documents/splashkit-core/coresdk/src/backend/json_driver.h
FNL:0,28,39
FNA:0,34,_ZN13splashkit_lib7sk_jsonC1Ev
FNA:0,34,_ZN13splashkit_lib7sk_jsonC2Ev
FNA:0,34,_ZN13splashkit_lib7sk_jsonD1Ev
FNA:0,34,_ZN13splashkit_lib7sk_jsonD2Ev
FNL:1,39,48
FNA:1,12,_ZN13splashkit_lib17sk_json_add_valueIN8nlohmann10basic_jsonINSt3__13mapENS3_6vectorENS3_12basic_stringIcNS3_11char_traitsIcEENS3_9allocatorIcEEEEbxydS9_NS1_14adl_serializerEEEEEvPNS_7sk_jsonESB_T_
FNA:1,62,_ZN13splashkit_lib17sk_json_add_valueINSt3__112basic_stringIcNS1_11char_traitsIcEENS1_9allocatorIcEEEEEEvPNS_7sk_jsonES7_T_
FNA:1,0,_ZN13splashkit_lib17sk_json_add_valueINSt3__16vectorIN8nlohmann10basic_jsonINS1_3mapES2_NS1_12basic_stringIcNS1_11char_traitsIcEENS1_9allocatorIcEEEEbxydS9_NS3_14adl_serializerEEENS9_ISD_EEEEEEvPNS_7sk_jsonESB_T_
FNA:1,12,_ZN13splashkit_lib17sk_json_add_valueINSt3__16vectorINS1_12basic_stringIcNS1_11char_traitsIcEENS1_9allocatorIcEEEENS6_IS8_EEEEEEvPNS_7sk_jsonES8_T_
FNA:1,0,_ZN13splashkit_lib17sk_json_add_valueINSt3__16vectorIbNS1_9allocatorIbEEEEEEvPNS_7sk_jsonENS1_12basic_stringIcNS1_11char_traitsIcEENS3_IcEEEET_
FNA:1,0,_ZN13splashkit_lib17sk_json_add_valueINSt3__16vectorIdNS1_9allocatorIdEEEEEEvPNS_7sk_jsonENS1_12basic_stringIcNS1_11char_traitsIcEENS3_IcEEEET_
FNA:1,12,_ZN13splashkit_lib17sk_json_add_valueIbEEvPNS_7sk_jsonENSt3__112basic_stringIcNS3_11char_traitsIcEENS3_9allocatorIcEEEET_
FNA:1,0,_ZN13splashkit_lib17sk_json_add_valueIdEEvPNS_7sk_jsonENSt3__112basic_stringIcNS3_11char_traitsIcEENS3_9allocatorIcEEEET_
FNA:1,0,_ZN13splashkit_lib17sk_json_add_valueIfEEvPNS_7sk_jsonENSt3__112basic_stringIcNS3_11char_traitsIcEENS3_9allocatorIcEEEET_
FNA:1,12,_ZN13splashkit_lib17sk_json_add_valueIiEEvPNS_7sk_jsonENSt3__112basic_stringIcNS3_11char_traitsIcEENS3_9allocatorIcEEEET_
FNL:2,50,54
FNA:2,0,_ZN13splashkit_lib14is_type_numberEN8nlohmann6detail7value_tE
FNL:3,58,76
FNA:3,4,_ZN13splashkit_lib18sk_json_read_valueIN8nlohmann10basic_jsonINSt3__13mapENS3_6vectorENS3_12basic_stringIcNS3_11char_traitsIcEENS3_9allocatorIcEEEEbxydS9_NS1_14adl_serializerEEEEET_PNS_7sk_jsonESB_NS1_6detail7value_tE
FNA:3,18,_ZN13splashkit_lib18sk_json_read_valueINSt3__112basic_stringIcNS1_11char_traitsIcEENS1_9allocatorIcEEEEEET_PNS_7sk_jsonES7_N8nlohmann6detail7value_tE
FNA:3,2,_ZN13splashkit_lib18sk_json_read_valueIbEET_PNS_7sk_jsonENSt3__112basic_stringIcNS4_11char_traitsIcEENS4_9allocatorIcEEEEN8nlohmann6detail7value_tE
FNA:3,0,_ZN13splashkit_lib18sk_json_read_valueIdEET_PNS_7sk_jsonENSt3__112basic_stringIcNS4_11char_traitsIcEENS4_9allocatorIcEEEEN8nlohmann6detail7value_tE
FNA:3,0,_ZN13splashkit_lib18sk_json_read_valueIfEET_PNS_7sk_jsonENSt3__112basic_stringIcNS4_11char_traitsIcEENS4_9allocatorIcEEEEN8nlohmann6detail7value_tE
FNA:3,2,_ZN13splashkit_lib18sk_json_read_valueIiEET_PNS_7sk_jsonENSt3__112basic_stringIcNS4_11char_traitsIcEENS4_9allocatorIcEEEEN8nlohmann6detail7value_tE
FNL:4,79,100
FNA:4,0,_ZN13splashkit_lib18sk_json_read_arrayIN8nlohmann10basic_jsonINSt3__13mapENS3_6vectorENS3_12basic_stringIcNS3_11char_traitsIcEENS3_9allocatorIcEEEEbxydS9_NS1_14adl_serializerEEEEEvPNS_7sk_jsonESB_RNS5_IT_NS9_ISG_EEEE
FNA:4,2,_ZN13splashkit_lib18sk_json_read_arrayINSt3__112basic_stringIcNS1_11char_traitsIcEENS1_9allocatorIcEEEEEEvPNS_7sk_jsonES7_RNS1_6vectorIT_NS5_ISB_EEEE
FNA:4,0,_ZN13splashkit_lib18sk_json_read_arrayIbEEvPNS_7sk_jsonENSt3__112basic_stringIcNS3_11char_traitsIcEENS3_9allocatorIcEEEERNS3_6vectorIT_NS7_ISB_EEEE
FNA:4,0,_ZN13splashkit_lib18sk_json_read_arrayIdEEvPNS_7sk_jsonENSt3__112basic_stringIcNS3_11char_traitsIcEENS3_9allocatorIcEEEERNS3_6vectorIT_NS7_ISB_EEEE
FNF:5
FNH:4
DA:39,110
DA:41,110
DA:43,0
DA:44,0
DA:47,110
DA:48,110
DA:50,0
DA:52,0
DA:53,0
DA:54,0
DA:58,26
DA:60,26
DA:62,0
DA:63,0
DA:66,26
DA:68,26
DA:69,0
DA:71,0
DA:72,0
DA:75,26
DA:76,26
DA:79,2
DA:81,2
DA:83,0
DA:84,0
DA:87,2
DA:89,0
DA:90,0
DA:93,2
DA:95,2
DA:97,6
DA:98,4
DA:99,4
DA:100,2
LF:34
LH:19
end_of_record
TN:
SF:/Users/trungpham/Documents/splashkit-core/coresdk/src/backend/logging_driver.cpp
FNL:0,0,15
FNA:0,4,__cxx_global_var_init
FNA:0,4,__cxx_global_var_init.1
FNL:1,20,39
FNA:1,2,_ZN13splashkit_lib15sk_init_loggingEv
FNF:2
FNH:2
DA:15,8
DA:20,2
DA:23,2
DA:24,2
DA:25,2
DA:27,2
DA:28,2
DA:30,2
DA:32,2
DA:33,2
DA:34,2
DA:35,2
DA:38,2
DA:39,2
LF:14
LH:14
end_of_record
TN:
SF:/Users/trungpham/Documents/splashkit-core/coresdk/src/backend/network_driver.cpp
FNL:0,104,115
FNA:0,0,_ZN13splashkit_lib13sk_send_bytesEPNS_21sk_network_connectionEPcm
FNL:1,118,126
FNA:1,0,_ZN13splashkit_lib19sk_send_udp_messageEPNS_21sk_network_connectionEPKctS3_m
FNL:2,129,153
FNA:2,0,_ZN13splashkit_lib19sk_read_udp_messageEPNS_21sk_network_connectionEPjPtPcPm
FNL:3,155,158
FNA:3,0,_ZN13splashkit_lib13sk_read_bytesEPNS_21sk_network_connectionEPci
FNL:4,161,176
FNA:4,12,_ZN13splashkit_lib19sk_close_connectionEPNS_21sk_network_connectionE
FNL:5,178,185
FNA:5,4,_ZN13splashkit_lib18sk_network_addressEPNS_21sk_network_connectionE
FNL:6,188,195
FNA:6,0,_ZN13splashkit_lib19sk_get_network_portEPNS_21sk_network_connectionE
FNL:7,198,212
FNA:7,0,_ZN13splashkit_lib20sk_accept_connectionERNS_21sk_network_connectionE
FNL:8,215,220
FNA:8,0,_ZN13splashkit_lib19sk_network_has_dataEv
FNL:9,222,231
FNA:9,0,_ZN13splashkit_lib22sk_connection_has_dataEPNS_21sk_network_connectionE
FNL:10,30,39
FNA:10,2,_ZN13splashkit_lib15sk_network_initEv
FNL:11,41,68
FNA:11,6,_ZN13splashkit_lib22sk_open_udp_connectionEt
FNL:12,70,102
FNA:12,10,_ZN13splashkit_lib22sk_open_tcp_connectionEPKct
FNF:13
FNH:5
DA:30,2
DA:32,2
DA:33,2
DA:34,2
DA:36,0
DA:37,0
DA:39,2
DA:41,6
DA:43,6
DA:48,6
DA:49,6
DA:50,6
DA:52,6
DA:54,6
DA:56,6
DA:57,6
DA:58,6
DA:59,6
DA:62,0
DA:63,0
DA:64,0
DA:67,6
DA:68,0
DA:70,10
DA:72,10
DA:78,10
DA:79,10
DA:80,10
DA:82,10
DA:83,2
DA:85,8
DA:87,8
DA:89,6
DA:90,6
DA:91,6
DA:92,2
DA:93,6
DA:96,2
DA:97,2
DA:98,2
DA:101,8
DA:102,10
DA:104,0
DA:108,0
DA:109,0
DA:112,0
DA:113,0
DA:115,0
DA:118,0
DA:122,0
DA:124,0
DA:125,0
DA:126,0
DA:129,0
DA:134,0
DA:136,0
DA:137,0
DA:138,0
DA:142,0
DA:143,0
DA:145,0
DA:147,0
DA:148,0
DA:149,0
DA:150,0
DA:151,0
DA:152,0
DA:153,0
DA:155,0
DA:158,0
DA:161,12
DA:164,12
DA:166,6
DA:167,6
DA:168,6
DA:171,6
DA:172,6
DA:175,12
DA:176,12
DA:178,4
DA:181,4
DA:182,2
DA:184,2
DA:185,4
DA:188,0
DA:191,0
DA:192,0
DA:194,0
DA:195,0
DA:198,0
DA:201,0
DA:202,0
DA:205,0
DA:208,0
DA:209,0
DA:210,0
DA:211,0
DA:212,0
DA:215,0
DA:217,0
DA:218,0
DA:219,0
DA:220,0
DA:222,0
DA:224,0
DA:227,0
DA:228,0
DA:230,0
DA:231,0
LF:109
LH:50
end_of_record
TN:
SF:/Users/trungpham/Documents/splashkit-core/coresdk/src/backend/text_driver.cpp
FNL:0,0,36
FNA:0,4,__cxx_global_var_init
FNL:1,125,128
FNA:1,2,_ZN13splashkit_lib16sk_add_font_sizeEPNS_12sk_font_dataEi
FNL:2,130,143
FNA:2,2,_ZN13splashkit_lib22sk_contains_valid_fontEPNS_12sk_font_dataE
FNL:3,145,164
FNA:3,0,_ZN13splashkit_lib13sk_close_fontEPNS_12sk_font_dataE
FNL:4,166,178
FNA:4,0,_ZN13splashkit_lib17sk_text_line_skipEPNS_12sk_font_dataEi
FNL:5,180,194
FNA:5,0,_ZN13splashkit_lib12sk_text_sizeEPNS_12sk_font_dataEiRKNSt3__112basic_stringIcNS2_11char_traitsIcEENS2_9allocatorIcEEEEPiSB_
FNL:6,196,208
FNA:6,0,_ZN13splashkit_lib14sk_text_heightEPNS_12sk_font_dataEi
FNL:7,210,222
FNA:7,0,_ZN13splashkit_lib17sk_set_font_styleEPNS_12sk_font_dataEii
FNL:8,224,236
FNA:8,0,_ZN13splashkit_lib17sk_get_font_styleEPNS_12sk_font_dataEi
FNL:9,238,261
FNA:9,0,_ZN13splashkit_lib20_sk_draw_bitmap_textEPNS_18sk_drawing_surfaceEddPKcNS_5colorE
FNL:10,263,325
FNA:10,0,_ZN13splashkit_lib12sk_draw_textEPNS_18sk_drawing_surfaceEPNS_12sk_font_dataEiddPKcNS_5colorE
FNL:11,327,341
FNA:11,2,_ZN13splashkit_lib16system_font_pathEv
FNL:12,343,346
FNA:12,2,_ZN13splashkit_lib22load_system_font_pathsEv
FNL:13,348,380
FNA:13,2,_ZN13splashkit_lib24sk_find_system_font_pathENSt3__112basic_stringIcNS0_11char_traitsIcEENS0_9allocatorIcEEEE
FNL:14,45,55
FNA:14,2,_ZN13splashkit_lib12sk_init_textEv
FNL:15,57,60
FNA:15,0,_ZN13splashkit_lib16sk_finalize_textEv
FNL:16,62,80
FNA:16,2,_ZN13splashkit_lib12sk_load_fontEPKci
FNL:17,86,123
FNA:17,2,_ZN13splashkit_lib9_get_fontEPNS_12sk_font_dataEi
FNF:18
FNH:9
DA:36,4
DA:45,2
DA:48,2
DA:50,0
DA:51,0
DA:54,2
DA:55,2
DA:57,0
DA:59,0
DA:60,0
DA:62,2
DA:64,2
DA:66,2
DA:67,2
DA:68,2
DA:69,2
DA:71,2
DA:73,2
DA:75,0
DA:76,0
DA:77,0
DA:78,0
DA:80,2
DA:86,2
DA:88,2
DA:90,2
DA:93,2
DA:95,0
DA:96,0
DA:100,2
DA:102,2
DA:104,0
DA:105,0
DA:108,2
DA:110,0
DA:111,0
DA:112,0
DA:114,2
DA:116,2
DA:119,0
DA:122,2
DA:123,2
DA:125,2
DA:127,2
DA:128,2
DA:130,2
DA:132,2
DA:134,2
DA:136,2
DA:138,2
DA:142,0
DA:143,2
DA:145,0
DA:147,0
DA:149,0
DA:151,0
DA:153,0
DA:154,0
DA:157,0
DA:158,0
DA:159,0
DA:162,0
DA:164,0
DA:166,0
DA:168,0
DA:170,0
DA:172,0
DA:176,0
DA:178,0
DA:180,0
DA:182,0
DA:184,0
DA:186,0
DA:190,0
DA:191,0
DA:192,0
DA:194,0
DA:196,0
DA:198,0
DA:200,0
DA:202,0
DA:206,0
DA:208,0
DA:210,0
DA:212,0
DA:214,0
DA:216,0
DA:217,0
DA:220,0
DA:222,0
DA:224,0
DA:226,0
DA:228,0
DA:230,0
DA:234,0
DA:236,0
DA:238,0
DA:243,0
DA:244,0
DA:245,0
DA:247,0
DA:249,0
DA:250,0
DA:251,0
DA:252,0
DA:253,0
DA:254,0
DA:255,0
DA:256,0
DA:257,0
DA:258,0
DA:259,0
DA:261,0
DA:263,0
DA:271,0
DA:273,0
DA:274,0
DA:277,0
DA:279,0
DA:281,0
DA:282,0
DA:285,0
DA:286,0
DA:287,0
DA:288,0
DA:290,0
DA:292,0
DA:295,0
DA:298,0
DA:300,0
DA:302,0
DA:303,0
DA:304,0
DA:307,0
DA:311,0
DA:312,0
DA:313,0
DA:314,0
DA:316,0
DA:318,0
DA:320,0
DA:322,0
DA:323,0
DA:325,0
DA:327,2
DA:329,2
DA:337,2
DA:340,2
DA:341,2
DA:343,2
DA:345,2
DA:346,2
DA:348,2
DA:350,2
DA:352,2
DA:353,4
DA:355,4
DA:356,4
DA:360,4
DA:362,0
DA:364,4
DA:366,0
DA:369,4
DA:371,2
DA:373,2
DA:375,0
DA:377,4
DA:379,0
DA:380,2
LF:169
LH:55
end_of_record
TN:
SF:/Users/trungpham/Documents/splashkit-core/coresdk/src/backend/utility_functions.cpp
FNL:0,106,115
FNA:0,36,_ZN13splashkit_lib8to_lowerENSt3__112basic_stringIcNS0_11char_traitsIcEENS0_9allocatorIcEEEE
FNL:1,117,140
FNA:1,182,_ZN13splashkit_lib9path_fromESt16initializer_listINSt3__112basic_stringIcNS1_11char_traitsIcEENS1_9allocatorIcEEEEES7_
FNL:2,142,147
FNA:2,2,_ZN13splashkit_lib12base_fs_pathEv
FNL:3,151,170
FNA:3,2,_ZN13splashkit_lib18scan_dir_recursiveERKNSt3__112basic_stringIcNS0_11char_traitsIcEENS0_9allocatorIcEEEE
FNL:4,176,186
FNA:4,0,_ZN13splashkit_lib8ptr_kindEPv
FNL:5,188,199
FNA:5,0,_ZN13splashkit_lib13to_window_ptrEPv
FNL:6,201,212
FNA:6,0,_ZN13splashkit_lib13to_bitmap_ptrEPv
FNL:7,214,237
FNA:7,0,_ZN13splashkit_lib14to_surface_ptrEPv
FNL:8,239,257
FNA:8,0,_ZN13splashkit_lib12xy_from_optsERKNS_15drawing_optionsERdS3_
FNL:9,259,284
FNA:9,538,_ZN13splashkit_lib17extract_delimitedEiNSt3__112basic_stringIcNS0_11char_traitsIcEENS0_9allocatorIcEEEEc
FNL:10,286,327
FNA:10,184,_ZN13splashkit_lib29extract_delimited_with_rangesEiNSt3__112basic_stringIcNS0_11char_traitsIcEENS0_9allocatorIcEEEE
FNL:11,329,331
FNA:11,154,_ZN13splashkit_lib15count_delimiterENSt3__112basic_stringIcNS0_11char_traitsIcEENS0_9allocatorIcEEEEc
FNL:12,332,333
FNA:12,1166,_ZZN13splashkit_lib15count_delimiterENSt3__112basic_stringIcNS0_11char_traitsIcEENS0_9allocatorIcEEEEcENK3$_0clEc
FNL:13,336,352
FNA:13,74,_ZN13splashkit_lib27count_delimiter_with_rangesENSt3__112basic_stringIcNS0_11char_traitsIcEENS0_9allocatorIcEEEEc
FNL:14,355,377
FNA:14,372,_ZN13splashkit_lib14try_str_to_intENSt3__112basic_stringIcNS0_11char_traitsIcEENS0_9allocatorIcEEEERi
FNL:15,379,401
FNA:15,258,_ZN13splashkit_lib10str_to_intENSt3__112basic_stringIcNS0_11char_traitsIcEENS0_9allocatorIcEEEEbi
FNL:16,403,425
FNA:16,0,_ZN13splashkit_lib16try_str_to_floatENSt3__112basic_stringIcNS0_11char_traitsIcEENS0_9allocatorIcEEEERf
FNL:17,427,449
FNA:17,0,_ZN13splashkit_lib12str_to_floatENSt3__112basic_stringIcNS0_11char_traitsIcEENS0_9allocatorIcEEEEbf
FNL:18,451,473
FNA:18,0,_ZN13splashkit_lib17try_str_to_doubleENSt3__112basic_stringIcNS0_11char_traitsIcEENS0_9allocatorIcEEEERd
FNL:19,47,50
FNA:19,128,_ZN13splashkit_lib11file_existsENSt3__112basic_stringIcNS0_11char_traitsIcEENS0_9allocatorIcEEEE
FNL:20,475,497
FNA:20,0,_ZN13splashkit_lib13str_to_doubleENSt3__112basic_stringIcNS0_11char_traitsIcEENS0_9allocatorIcEEEEbd
FNL:21,499,502
FNA:21,0,_ZN13splashkit_lib8to_upperERNSt3__112basic_stringIcNS0_11char_traitsIcEENS0_9allocatorIcEEEE
FNL:22,504,508
FNA:22,368,_ZN13splashkit_lib4signEi
FNL:23,510,575
FNA:23,92,_ZN13splashkit_lib13process_rangeENSt3__112basic_stringIcNS0_11char_traitsIcEENS0_9allocatorIcEEEERNS0_6vectorIiNS4_IiEEEE
FNL:24,53,56
FNA:24,2,_ZN13splashkit_lib16directory_existsENSt3__112basic_stringIcNS0_11char_traitsIcEENS0_9allocatorIcEEEE
FNL:25,577,579
FNA:25,16,_ZN13splashkit_lib10rad_to_degEd
FNL:26,582,584
FNA:26,104,_ZN13splashkit_lib10deg_to_radEd
FNL:27,587,588
FNA:27,0,_ZN13splashkit_lib10lin_interpEddd
FNL:28,59,63
FNA:28,0,_ZN13splashkit_lib12directory_ofENSt3__112basic_stringIcNS0_11char_traitsIcEENS0_9allocatorIcEEEE
FNL:29,66,69
FNA:29,0,_ZN13splashkit_lib11get_env_varERKNSt3__112basic_stringIcNS0_11char_traitsIcEENS0_9allocatorIcEEEE
FNL:30,72,76
FNA:30,0,_ZN13splashkit_lib17path_to_user_homeEv
FNL:31,94,104
FNA:31,6,_ZN13splashkit_lib3catESt16initializer_listINSt3__112basic_stringIcNS1_11char_traitsIcEENS1_9allocatorIcEEEEE
FNF:32
FNH:18
DA:47,128
DA:50,128
DA:53,2
DA:56,2
DA:59,0
DA:62,0
DA:63,0
DA:66,0
DA:68,0
DA:69,0
DA:72,0
DA:75,0
DA:76,0
DA:94,6
DA:96,6
DA:98,36
DA:100,30
DA:101,30
DA:103,6
DA:104,6
DA:106,36
DA:108,36
DA:109,36
DA:111,400
DA:112,364
DA:114,36
DA:115,36
DA:117,182
DA:125,182
DA:126,182
DA:127,452
DA:129,270
DA:130,0
DA:131,270
DA:132,270
DA:133,270
DA:134,98
DA:136,270
DA:137,270
DA:139,182
DA:140,182
DA:142,2
DA:147,2
DA:151,2
DA:153,2
DA:154,2
DA:158,2
DA:160,742
DA:162,740
DA:165,2
DA:166,2
DA:169,2
DA:170,2
DA:176,0
DA:180,0
DA:182,0
DA:183,0
DA:185,0
DA:186,0
DA:188,0
DA:190,0
DA:192,0
DA:194,0
DA:195,0
DA:196,0
DA:198,0
DA:199,0
DA:201,0
DA:203,0
DA:205,0
DA:207,0
DA:208,0
DA:209,0
DA:211,0
DA:212,0
DA:214,0
DA:220,0
DA:222,0
DA:224,0
DA:225,0
DA:227,0
DA:229,0
DA:230,0
DA:234,0
DA:235,0
DA:237,0
DA:239,0
DA:242,0
DA:245,0
DA:247,0
DA:249,0
DA:250,0
DA:251,0
DA:255,0
DA:256,0
DA:257,0
DA:259,538
DA:261,538
DA:263,538
DA:265,1710
DA:267,1710
DA:268,1172
DA:270,330
DA:271,330
DA:272,1172
DA:274,3704
DA:276,3430
DA:278,3166
DA:279,3166
DA:280,264
DA:281,3166
DA:283,538
DA:284,538
DA:286,184
DA:292,184
DA:293,184
DA:294,184
DA:297,2092
DA:299,2066
DA:301,1908
DA:302,276
DA:303,1632
DA:304,190
DA:305,1442
DA:306,190
DA:307,1908
DA:309,184
DA:311,184
DA:312,184
DA:314,916
DA:316,870
DA:317,138
DA:318,732
DA:319,76
DA:320,656
DA:321,76
DA:323,732
DA:324,732
DA:326,184
DA:327,184
DA:329,154
DA:331,154
DA:332,1320
DA:333,154
DA:336,74
DA:339,74
DA:340,74
DA:342,1304
DA:344,1230
DA:345,166
DA:346,1064
DA:347,76
DA:348,988
DA:349,76
DA:350,1230
DA:352,74
DA:355,372
DA:371,372
DA:373,60
DA:376,312
DA:377,372
DA:379,258
DA:383,258
DA:385,232
DA:388,0
DA:392,0
DA:393,0
DA:396,0
DA:397,0
DA:398,0
DA:400,232
DA:401,258
DA:403,0
DA:419,0
DA:421,0
DA:424,0
DA:425,0
DA:427,0
DA:431,0
DA:433,0
DA:436,0
DA:440,0
DA:441,0
DA:444,0
DA:445,0
DA:446,0
DA:448,0
DA:449,0
DA:451,0
DA:467,0
DA:469,0
DA:472,0
DA:473,0
DA:475,0
DA:479,0
DA:481,0
DA:484,0
DA:488,0
DA:489,0
DA:492,0
DA:493,0
DA:494,0
DA:496,0
DA:497,0
DA:499,0
DA:501,0
DA:502,0
DA:504,368
DA:506,368
DA:507,336
DA:508,368
DA:510,92
DA:513,92
DA:515,92
DA:516,92
DA:518,92
DA:521,16
DA:523,16
DA:524,16
DA:525,16
DA:528,76
DA:530,76
DA:531,76
DA:533,200
DA:535,124
DA:537,124
DA:540,64
DA:541,64
DA:544,60
DA:546,60
DA:547,60
DA:549,0
DA:551,60
DA:552,60
DA:553,0
DA:554,0
DA:555,0
DA:556,0
DA:557,0
DA:558,0
DA:561,0
DA:562,0
DA:563,0
DA:566,428
DA:569,368
DA:570,368
DA:573,124
DA:575,92
DA:577,16
DA:579,16
DA:582,104
DA:584,104
DA:587,0
DA:588,0
LF:254
LH:148
end_of_record
TN:
SF:/Users/trungpham/Documents/splashkit-core/coresdk/src/backend/utility_functions.h
FNL:0,139,139
FNA:0,0,_ZN13splashkit_lib11FinalActionIZNS_21_guess_resources_pathEvE3$_0EC1ES1_
FNA:0,0,_ZN13splashkit_lib11FinalActionIZNS_21_guess_resources_pathEvE3$_0EC2ES1_
FNL:1,142,150
FNA:1,0,_ZN13splashkit_lib11FinalActionIZNS_21_guess_resources_pathEvE3$_0ED1Ev
FNA:1,0,_ZN13splashkit_lib11FinalActionIZNS_21_guess_resources_pathEvE3$_0ED2Ev
FNL:2,155,157
FNA:2,0,_ZN13splashkit_lib7finallyIZNS_21_guess_resources_pathEvE3$_0EENS_11FinalActionIT_EES3_
FNL:3,42,54
FNA:3,0,_ZN13splashkit_lib17erase_from_vectorIPFvPvEEEbRNSt3__16vectorIT_NS4_9allocatorIS6_EEEES6_
FNA:3,4,_ZN13splashkit_lib17erase_from_vectorIPFvPviEEEbRNSt3__16vectorIT_NS4_9allocatorIS6_EEEES6_
FNA:3,142,_ZN13splashkit_lib17erase_from_vectorIPvEEbRNSt3__16vectorIT_NS2_9allocatorIS4_EEEES4_
FNA:3,0,_ZN13splashkit_lib17erase_from_vectorIiEEbRNSt3__16vectorIT_NS1_9allocatorIS3_EEEES3_
FNL:4,57,63
FNA:4,0,_ZN13splashkit_lib8index_ofIPNS_18sk_connection_dataEEEiNSt3__16vectorIT_NS3_9allocatorIS5_EEEES5_
FNA:4,2,_ZN13splashkit_lib8index_ofIiEEiNSt3__16vectorIT_NS1_9allocatorIS3_EEEES3_
FNL:5,66,69
FNA:5,0,_ZN13splashkit_lib12key_of_valueINSt3__112basic_stringIcNS1_11char_traitsIcEENS1_9allocatorIcEEEEiEEbRKNS1_3mapIT_T0_NS1_4lessIS9_EENS5_INS1_4pairIKS9_SA_EEEEEERKSA_RS9_
FNL:6,70,84
FNA:6,0,_ZZN13splashkit_lib12key_of_valueINSt3__112basic_stringIcNS1_11char_traitsIcEENS1_9allocatorIcEEEEiEEbRKNS1_3mapIT_T0_NS1_4lessIS9_EENS5_INS1_4pairIKS9_SA_EEEEEERKSA_RS9_ENKUlRKNSD_IS7_iEEE_clESP_
FNL:7,87,94
FNA:7,0,_ZN13splashkit_lib10move_rangeIiEEvRNSt3__16vectorIT_NS1_9allocatorIS3_EEEEmmm
FNF:8
FNH:2
DA:42,146
DA:44,146
DA:45,146
DA:47,146
DA:48,146
DA:52,0
DA:54,146
DA:57,2
DA:59,2
DA:61,2
DA:62,2
DA:63,2
DA:66,0
DA:68,0
DA:69,0
DA:70,0
DA:72,0
DA:75,0
DA:77,0
DA:78,0
DA:82,0
DA:84,0
DA:87,0
DA:89,0
DA:91,0
DA:92,0
DA:93,0
DA:94,0
DA:139,0
DA:142,0
DA:150,0
DA:155,0
DA:157,0
LF:33
LH:11
end_of_record
TN:
SF:/Users/trungpham/Documents/splashkit-core/coresdk/src/backend/utils_driver.cpp
FNL:0,19,22
FNA:0,8,_ZN13splashkit_lib8sk_delayEj
FNL:1,24,27
FNA:1,146,_ZN13splashkit_lib12sk_get_ticksEv
FNF:2
FNH:2
DA:19,8
DA:21,8
DA:22,8
DA:24,146
DA:27,146
LF:5
LH:5
end_of_record
TN:
SF:/Users/trungpham/Documents/splashkit-core/coresdk/src/backend/web_driver.cpp
FNL:0,106,127
FNA:0,0,_ZN13splashkit_lib18_setup_curl_uploadEPvRKNSt3__112basic_stringIcNS1_11char_traitsIcEENS1_9allocatorIcEEEERKNS1_6vectorIS7_NS5_IS7_EEEE
FNL:1,130,137
FNA:1,0,_ZN13splashkit_lib20_setup_curl_downloadEPvPNS_14request_streamE
FNL:2,139,169
FNA:2,0,_ZN13splashkit_lib16_create_responseEPv8CURLcodeRNS_14request_streamE
FNL:3,171,189
FNA:3,0,_ZN13splashkit_lib12sk_http_postERKNSt3__112basic_stringIcNS0_11char_traitsIcEENS0_9allocatorIcEEEEtS8_RKNS0_6vectorIS6_NS4_IS6_EEEE
FNL:4,192,206
FNA:4,0,_ZN13splashkit_lib11sk_http_getERKNSt3__112basic_stringIcNS0_11char_traitsIcEENS0_9allocatorIcEEEEt
FNL:5,209,248
FNA:5,0,_ZN13splashkit_lib11sk_http_putERKNSt3__112basic_stringIcNS0_11char_traitsIcEENS0_9allocatorIcEEEEtS8_
FNL:6,251,274
FNA:6,0,_ZN13splashkit_lib14sk_http_deleteERKNSt3__112basic_stringIcNS0_11char_traitsIcEENS0_9allocatorIcEEEEtS8_
FNL:7,27,44
FNA:7,0,_ZN13splashkit_libL21write_memory_callbackEPvmmS0_
FNL:8,276,293
FNA:8,0,_ZN13splashkit_lib20sk_http_make_requestERKNS_15sk_http_requestE
FNL:9,46,49
FNA:9,0,_ZN13splashkit_lib10write_dataEPvmmP7__sFILE
FNL:10,56,78
FNA:10,0,_ZN13splashkit_libL17read_request_bodyEPvmmS0_
FNL:11,80,83
FNA:11,2,_ZN13splashkit_lib11sk_init_webEv
FNL:12,85,88
FNA:12,0,_ZN13splashkit_lib15sk_finalise_webEv
FNL:13,90,104
FNA:13,0,_ZN13splashkit_lib10_init_curlEPvRKNSt3__112basic_stringIcNS1_11char_traitsIcEENS1_9allocatorIcEEEEt
FNF:14
FNH:1
DA:27,0
DA:29,0
DA:30,0
DA:32,0
DA:33,0
DA:35,0
DA:36,0
DA:39,0
DA:40,0
DA:41,0
DA:43,0
DA:44,0
DA:46,0
DA:48,0
DA:49,0
DA:56,0
DA:59,0
DA:61,0
DA:63,0
DA:65,0
DA:66,0
DA:69,0
DA:70,0
DA:72,0
DA:73,0
DA:74,0
DA:77,0
DA:78,0
DA:80,2
DA:82,2
DA:83,2
DA:85,0
DA:87,0
DA:88,0
DA:90,0
DA:93,0
DA:96,0
DA:98,0
DA:100,0
DA:103,0
DA:104,0
DA:106,0
DA:109,0
DA:111,0
DA:113,0
DA:115,0
DA:116,0
DA:117,0
DA:120,0
DA:121,0
DA:124,0
DA:125,0
DA:127,0
DA:130,0
DA:133,0
DA:136,0
DA:137,0
DA:139,0
DA:142,0
DA:144,0
DA:145,0
DA:148,0
DA:150,0
DA:153,0
DA:154,0
DA:157,0
DA:158,0
DA:159,0
DA:161,0
DA:164,0
DA:166,0
DA:167,0
DA:168,0
DA:169,0
DA:171,0
DA:173,0
DA:176,0
DA:179,0
DA:180,0
DA:181,0
DA:184,0
DA:187,0
DA:189,0
DA:192,0
DA:194,0
DA:197,0
DA:200,0
DA:201,0
DA:204,0
DA:206,0
DA:209,0
DA:211,0
DA:214,0
DA:217,0
DA:218,0
DA:221,0
DA:222,0
DA:223,0
DA:224,0
DA:227,0
DA:230,0
DA:232,0
DA:235,0
DA:238,0
DA:241,0
DA:243,0
DA:246,0
DA:248,0
DA:251,0
DA:253,0
DA:256,0
DA:261,0
DA:262,0
DA:263,0
DA:265,0
DA:268,0
DA:271,0
DA:273,0
DA:274,0
DA:276,0
DA:278,0
DA:280,0
DA:283,0
DA:285,0
DA:287,0
DA:289,0
DA:291,0
DA:293,0
LF:128
LH:3
end_of_record
TN:
SF:/Users/trungpham/Documents/splashkit-core/coresdk/src/backend/web_server_driver.cpp
FNL:0,0,21
FNA:0,4,__cxx_global_var_init
FNL:1,137,140
FNA:1,0,_ZN13splashkit_lib16sk_flush_requestEPNS_15sk_http_requestE
FNL:2,146,160
FNA:2,0,_ZN13splashkit_lib14sk_get_requestEPNS_13sk_web_serverE
FNL:3,163,182
FNA:3,0,_ZN13splashkit_lib23sk_has_waiting_requestsEPNS_13sk_web_serverE
FNL:4,184,219
FNA:4,0,_ZN13splashkit_lib19sk_start_web_serverEt
FNL:5,221,260
FNA:5,0,_ZN13splashkit_lib18sk_stop_web_serverEPNS_13sk_web_serverE
FNL:6,28,135
FNA:6,0,_ZN13splashkit_libL21begin_request_handlerEP13mg_connection
FNF:7
FNH:1
DA:21,4
DA:28,0
DA:31,0
DA:32,0
DA:34,0
DA:35,0
DA:38,0
DA:39,0
DA:41,0
DA:42,0
DA:45,0
DA:47,0
DA:48,0
DA:49,0
DA:50,0
DA:51,0
DA:54,0
DA:55,0
DA:56,0
DA:57,0
DA:60,0
DA:62,0
DA:63,0
DA:64,0
DA:66,0
DA:67,0
DA:68,0
DA:70,0
DA:71,0
DA:72,0
DA:74,0
DA:75,0
DA:76,0
DA:78,0
DA:79,0
DA:80,0
DA:82,0
DA:83,0
DA:86,0
DA:87,0
DA:90,0
DA:94,0
DA:96,0
DA:97,0
DA:99,0
DA:100,0
DA:101,0
DA:104,0
DA:105,0
DA:106,0
DA:110,0
DA:118,0
DA:119,0
DA:120,0
DA:121,0
DA:122,0
DA:125,0
DA:128,0
DA:131,0
DA:134,0
DA:135,0
DA:137,0
DA:139,0
DA:140,0
DA:146,0
DA:150,0
DA:152,0
DA:153,0
DA:154,0
DA:157,0
DA:160,0
DA:163,0
DA:166,0
DA:168,0
DA:173,0
DA:175,0
DA:177,0
DA:178,0
DA:181,0
DA:182,0
DA:184,0
DA:186,0
DA:190,0
DA:192,0
DA:193,0
DA:196,0
DA:197,0
DA:198,0
DA:199,0
DA:201,0
DA:204,0
DA:206,0
DA:207,0
DA:210,0
DA:211,0
DA:214,0
DA:216,0
DA:218,0
DA:219,0
DA:221,0
DA:224,0
DA:226,0
DA:227,0
DA:230,0
DA:232,0
DA:233,0
DA:234,0
DA:238,0
DA:240,0
DA:243,0
DA:244,0
DA:246,0
DA:247,0
DA:249,0
DA:251,0
DA:252,0
DA:254,0
DA:255,0
DA:258,0
DA:260,0
LF:120
LH:1
end_of_record
TN:
SF:/Users/trungpham/Documents/splashkit-core/coresdk/src/coresdk/animations.cpp
FNL:0,0,32
FNA:0,4,__cxx_global_var_init
FNL:1,107,123
FNA:1,28,_ZZN13splashkit_lib21load_animation_scriptERKNSt3__112basic_stringIcNS0_11char_traitsIcEENS0_9allocatorIcEEEES8_ENK3$_9clENS_7id_dataE
FNL:2,145,186
FNA:2,46,_ZZN13splashkit_lib21load_animation_scriptERKNSt3__112basic_stringIcNS0_11char_traitsIcEENS0_9allocatorIcEEEES8_ENK3$_4clEv
FNL:3,188,202
FNA:3,28,_ZZN13splashkit_lib21load_animation_scriptERKNSt3__112basic_stringIcNS0_11char_traitsIcEENS0_9allocatorIcEEEES8_ENK3$_5clEv
FNL:4,204,232
FNA:4,18,_ZZN13splashkit_lib21load_animation_scriptERKNSt3__112basic_stringIcNS0_11char_traitsIcEENS0_9allocatorIcEEEES8_ENK3$_6clEv
FNL:5,234,274
FNA:5,0,_ZZN13splashkit_lib21load_animation_scriptERKNSt3__112basic_stringIcNS0_11char_traitsIcEENS0_9allocatorIcEEEES8_ENK3$_7clEv
FNL:6,276,311
FNA:6,92,_ZZN13splashkit_lib21load_animation_scriptERKNSt3__112basic_stringIcNS0_11char_traitsIcEENS0_9allocatorIcEEEES8_ENK3$_1clEv
FNL:7,313,363
FNA:7,2,_ZZN13splashkit_lib21load_animation_scriptERKNSt3__112basic_stringIcNS0_11char_traitsIcEENS0_9allocatorIcEEEES8_ENK3$_2clEv
FNL:8,365,378
FNA:8,0,_ZZN13splashkit_lib21load_animation_scriptERKNSt3__112basic_stringIcNS0_11char_traitsIcEENS0_9allocatorIcEEEES8_ENK4$_10clEPNS_15animation_frameE
FNL:9,382,416
FNA:9,2,_ZZN13splashkit_lib21load_animation_scriptERKNSt3__112basic_stringIcNS0_11char_traitsIcEENS0_9allocatorIcEEEES8_ENK3$_3clEv
FNL:10,41
FNA:10,30,_ZN13splashkit_lib7id_dataC1EOS0_
FNA:10,56,_ZN13splashkit_lib7id_dataC1ERKS0_
FNA:10,28,_ZN13splashkit_lib7id_dataC1Ev
FNA:10,30,_ZN13splashkit_lib7id_dataC2EOS0_
FNA:10,56,_ZN13splashkit_lib7id_dataC2ERKS0_
FNA:10,28,_ZN13splashkit_lib7id_dataC2Ev
FNA:10,114,_ZN13splashkit_lib7id_dataD1Ev
FNA:10,114,_ZN13splashkit_lib7id_dataD2Ev
FNL:11,418,468
FNA:11,2,_ZZN13splashkit_lib21load_animation_scriptERKNSt3__112basic_stringIcNS0_11char_traitsIcEENS0_9allocatorIcEEEES8_ENK3$_0clEv
FNL:12,470,476
FNA:12,0,_ZN13splashkit_lib22animation_script_namedERKNSt3__112basic_stringIcNS0_11char_traitsIcEENS0_9allocatorIcEEEE
FNL:13,479,499
FNA:13,2,_ZN13splashkit_lib21free_animation_scriptEPNS_22_animation_script_dataE
FNL:14,49,66
FNA:14,2,_ZN13splashkit_lib21load_animation_scriptERKNSt3__112basic_stringIcNS0_11char_traitsIcEENS0_9allocatorIcEEEES8_
FNL:15,501,504
FNA:15,0,_ZN13splashkit_lib21free_animation_scriptERKNSt3__112basic_stringIcNS0_11char_traitsIcEENS0_9allocatorIcEEEE
FNL:16,506,525
FNA:16,0,_ZN13splashkit_lib26free_all_animation_scriptsEv
FNL:17,527,540
FNA:17,0,_ZN13splashkit_lib17_remove_animationEPNS_22_animation_script_dataEPNS_15_animation_dataE
FNL:18,542,553
FNA:18,0,_ZN13splashkit_lib14free_animationEPNS_15_animation_dataE
FNL:19,555,557
FNA:19,4,_ZN13splashkit_lib20has_animation_scriptERKNSt3__112basic_stringIcNS0_11char_traitsIcEENS0_9allocatorIcEEEE
FNL:20,561,570
FNA:20,0,_ZN13splashkit_lib15animation_countEPNS_22_animation_script_dataE
FNL:21,572,582
FNA:21,18,_ZN13splashkit_lib22animation_current_cellEPNS_15_animation_dataE
FNL:22,584,595
FNA:22,18,_ZN13splashkit_lib24animation_current_vectorEPNS_15_animation_dataE
FNL:23,597,599
FNA:23,36,_ZN13splashkit_lib15animation_endedEPNS_15_animation_dataE
FNL:24,602,611
FNA:24,0,_ZN13splashkit_lib23animation_entered_frameEPNS_15_animation_dataE
FNL:25,613,622
FNA:25,0,_ZN13splashkit_lib20animation_frame_timeEPNS_15_animation_dataE
FNL:26,624,633
FNA:26,0,_ZN13splashkit_lib19has_animation_namedEPNS_22_animation_script_dataERKNSt3__112basic_stringIcNS2_11char_traitsIcEENS2_9allocatorIcEEEE
FNL:27,635,650
FNA:27,0,_ZN13splashkit_lib15animation_indexEPNS_22_animation_script_dataERKNSt3__112basic_stringIcNS2_11char_traitsIcEENS2_9allocatorIcEEEE
FNL:28,652,661
FNA:28,0,_ZN13splashkit_lib14animation_nameEPNS_15_animation_dataE
FNL:29,663,678
FNA:29,0,_ZN13splashkit_lib14animation_nameEPNS_22_animation_script_dataEi
FNL:30,680,684
FNA:30,0,_ZN13splashkit_lib21animation_script_nameEPNS_22_animation_script_dataE
FNL:31,686,717
FNA:31,0,_ZN13splashkit_lib16assign_animationEPNS_15_animation_dataEPNS_22_animation_script_dataEib
FNL:32,719,728
FNA:32,0,_ZN13splashkit_lib16assign_animationEPNS_15_animation_dataEib
FNL:33,72,105
FNA:33,224,_ZZN13splashkit_lib21load_animation_scriptERKNSt3__112basic_stringIcNS0_11char_traitsIcEENS0_9allocatorIcEEEES8_ENK3$_8clENS_8row_dataE
FNL:34,730,739
FNA:34,0,_ZN13splashkit_lib16assign_animationEPNS_15_animation_dataENSt3__112basic_stringIcNS2_11char_traitsIcEENS2_9allocatorIcEEEEb
FNL:35,742,745
FNA:35,0,_ZN13splashkit_lib16assign_animationEPNS_15_animation_dataEi
FNL:36,747,750
FNA:36,0,_ZN13splashkit_lib16assign_animationEPNS_15_animation_dataENSt3__112basic_stringIcNS2_11char_traitsIcEENS2_9allocatorIcEEEE
FNL:37,753,756
FNA:37,0,_ZN13splashkit_lib16assign_animationEPNS_15_animation_dataEPNS_22_animation_script_dataEi
FNL:38,758,761
FNA:38,0,_ZN13splashkit_lib16assign_animationEPNS_15_animation_dataEPNS_22_animation_script_dataERKNSt3__112basic_stringIcNS4_11char_traitsIcEENS4_9allocatorIcEEEE
FNL:39,763,766
FNA:39,0,_ZN13splashkit_lib16assign_animationEPNS_15_animation_dataEPNS_22_animation_script_dataERKNSt3__112basic_stringIcNS4_11char_traitsIcEENS4_9allocatorIcEEEEb
FNL:40,768,772
FNA:40,0,_ZN13splashkit_lib16assign_animationEPNS_15_animation_dataERKNSt3__112basic_stringIcNS2_11char_traitsIcEENS2_9allocatorIcEEEESA_
FNL:41,774,778
FNA:41,0,_ZN13splashkit_lib16assign_animationEPNS_15_animation_dataERKNSt3__112basic_stringIcNS2_11char_traitsIcEENS2_9allocatorIcEEEESA_b
FNL:42,781,813
FNA:42,0,_ZN13splashkit_lib16create_animationEPNS_22_animation_script_dataEib
FNL:43,815,817
FNA:43,0,_ZN13splashkit_lib16create_animationEPNS_22_animation_script_dataEi
FNL:44,820,822
FNA:44,0,_ZN13splashkit_lib16create_animationEPNS_22_animation_script_dataERKNSt3__112basic_stringIcNS2_11char_traitsIcEENS2_9allocatorIcEEEEb
FNL:45,825,827
FNA:45,0,_ZN13splashkit_lib16create_animationEPNS_22_animation_script_dataERKNSt3__112basic_stringIcNS2_11char_traitsIcEENS2_9allocatorIcEEEE
FNL:46,830,832
FNA:46,0,_ZN13splashkit_lib16create_animationERKNSt3__112basic_stringIcNS0_11char_traitsIcEENS0_9allocatorIcEEEES8_b
FNL:47,835,837
FNA:47,0,_ZN13splashkit_lib16create_animationERKNSt3__112basic_stringIcNS0_11char_traitsIcEENS0_9allocatorIcEEEES8_
FNL:48,840,843
FNA:48,0,_ZN13splashkit_lib17restart_animationEPNS_15_animation_dataE
FNL:49,845,860
FNA:49,0,_ZN13splashkit_lib17restart_animationEPNS_15_animation_dataEb
FNL:50,862,865
FNA:50,0,_ZN13splashkit_lib16update_animationEPNS_15_animation_dataE
FNL:51,867,870
FNA:51,0,_ZN13splashkit_lib16update_animationEPNS_15_animation_dataEf
FNL:52,872,898
FNA:52,18,_ZN13splashkit_lib16update_animationEPNS_15_animation_dataEfb
FNF:53
FNH:18
DA:32,4
DA:49,2
DA:52,2
DA:53,2
DA:55,2
DA:58,2
DA:60,2
DA:62,0
DA:63,0
DA:66,2
DA:72,226
DA:77,224
DA:79,224
DA:82,448
DA:84,224
DA:85,224
DA:86,224
DA:87,224
DA:88,224
DA:89,224
DA:91,224
DA:92,224
DA:94,224
DA:96,0
DA:97,0
DA:102,224
DA:103,224
DA:105,224
DA:107,30
DA:112,210
DA:114,182
DA:116,0
DA:117,0
DA:119,182
DA:121,28
DA:122,28
DA:123,28
DA:145,48
DA:147,46
DA:151,46
DA:153,0
DA:154,0
DA:157,46
DA:158,46
DA:160,46
DA:162,0
DA:163,0
DA:166,46
DA:167,46
DA:169,270
DA:171,224
DA:172,224
DA:173,224
DA:174,224
DA:175,224
DA:177,224
DA:178,178
DA:180,46
DA:182,224
DA:183,224
DA:185,46
DA:186,46
DA:188,30
DA:190,28
DA:192,28
DA:194,0
DA:195,0
DA:198,28
DA:199,28
DA:201,28
DA:202,28
DA:204,20
DA:207,18
DA:209,18
DA:211,0
DA:212,0
DA:215,18
DA:216,18
DA:217,18
DA:219,18
DA:221,6
DA:223,0
DA:224,0
DA:226,6
DA:228,18
DA:229,18
DA:231,0
DA:232,18
DA:234,2
DA:236,0
DA:237,0
DA:241,0
DA:243,0
DA:244,0
DA:247,0
DA:248,0
DA:249,0
DA:251,0
DA:253,0
DA:254,0
DA:257,0
DA:259,0
DA:260,0
DA:263,0
DA:267,0
DA:269,0
DA:271,0
DA:272,0
DA:274,0
DA:276,94
DA:279,92
DA:280,92
DA:283,92
DA:285,0
DA:286,0
DA:290,92
DA:293,8
DA:294,8
DA:296,38
DA:297,38
DA:299,28
DA:300,28
DA:302,18
DA:303,18
DA:305,0
DA:306,0
DA:308,0
DA:309,0
DA:311,92
DA:313,4
DA:316,2
DA:318,2
DA:319,2
DA:320,2
DA:324,2
DA:327,226
DA:329,224
DA:330,224
DA:331,224
DA:332,224
DA:333,224
DA:336,224
DA:338,224
DA:341,26
DA:342,26
DA:343,198
DA:345,0
DA:346,0
DA:347,0
DA:348,0
DA:351,198
DA:352,224
DA:354,2
DA:356,30
DA:358,28
DA:359,28
DA:360,28
DA:362,28
DA:363,2
DA:365,0
DA:369,0
DA:370,0
DA:372,0
DA:374,0
DA:375,0
DA:378,0
DA:382,4
DA:388,2
DA:390,2
DA:393,226
DA:395,224
DA:397,0
DA:398,0
DA:400,224
DA:402,2
DA:405,0
DA:407,0
DA:409,0
DA:411,0
DA:412,0
DA:413,0
DA:415,0
DA:416,2
DA:418,4
DA:420,2
DA:421,2
DA:423,4
DA:425,2
DA:426,2
DA:430,2
DA:432,0
DA:433,0
DA:436,2
DA:437,2
DA:439,2
DA:440,2
DA:441,2
DA:442,2
DA:444,2
DA:446,0
DA:447,0
DA:451,140
DA:453,138
DA:455,138
DA:456,138
DA:457,110
DA:459,92
DA:462,2
DA:463,2
DA:465,2
DA:467,2
DA:468,2
DA:470,0
DA:472,0
DA:473,0
DA:475,0
DA:476,0
DA:479,2
DA:481,2
DA:483,0
DA:484,0
DA:487,2
DA:490,2
DA:492,0
DA:493,0
DA:495,2
DA:497,2
DA:498,2
DA:499,2
DA:501,0
DA:503,0
DA:504,0
DA:506,0
DA:508,0
DA:510,0
DA:512,0
DA:514,0
DA:515,0
DA:517,0
DA:518,0
DA:521,0
DA:522,0
DA:524,0
DA:525,0
DA:527,0
DA:529,0
DA:531,0
DA:535,0
DA:536,0
DA:537,0
DA:539,0
DA:540,0
DA:542,0
DA:544,0
DA:546,0
DA:548,0
DA:549,0
DA:551,0
DA:552,0
DA:553,0
DA:555,4
DA:557,4
DA:561,0
DA:563,0
DA:565,0
DA:566,0
DA:569,0
DA:570,0
DA:572,18
DA:574,18
DA:575,18
DA:576,0
DA:577,0
DA:578,0
DA:579,0
DA:581,0
DA:582,18
DA:584,18
DA:586,18
DA:588,18
DA:591,0
DA:592,0
DA:594,0
DA:595,18
DA:597,36
DA:599,36
DA:602,0
DA:604,0
DA:606,0
DA:607,0
DA:610,0
DA:611,0
DA:613,0
DA:615,0
DA:617,0
DA:618,0
DA:621,0
DA:622,0
DA:624,0
DA:626,0
DA:628,0
DA:629,0
DA:632,0
DA:633,0
DA:635,0
DA:637,0
DA:639,0
DA:640,0
DA:643,0
DA:645,0
DA:646,0
DA:649,0
DA:650,0
DA:652,0
DA:654,0
DA:656,0
DA:657,0
DA:660,0
DA:661,0
DA:663,0
DA:665,0
DA:667,0
DA:668,0
DA:671,0
DA:673,0
DA:674,0
DA:677,0
DA:678,0
DA:680,0
DA:682,0
DA:683,0
DA:684,0
DA:686,0
DA:688,0
DA:690,0
DA:691,0
DA:694,0
DA:696,0
DA:697,0
DA:700,0
DA:702,0
DA:703,0
DA:707,0
DA:709,0
DA:710,0
DA:711,0
DA:712,0
DA:714,0
DA:715,0
DA:716,0
DA:717,0
DA:719,0
DA:721,0
DA:723,0
DA:724,0
DA:727,0
DA:728,0
DA:730,0
DA:732,0
DA:734,0
DA:735,0
DA:738,0
DA:739,0
DA:742,0
DA:744,0
DA:745,0
DA:747,0
DA:749,0
DA:750,0
DA:753,0
DA:755,0
DA:756,0
DA:758,0
DA:760,0
DA:761,0
DA:763,0
DA:765,0
DA:766,0
DA:768,0
DA:770,0
DA:771,0
DA:772,0
DA:774,0
DA:776,0
DA:777,0
DA:778,0
DA:781,0
DA:783,0
DA:785,0
DA:787,0
DA:788,0
DA:791,0
DA:793,0
DA:794,0
DA:797,0
DA:799,0
DA:800,0
DA:801,0
DA:802,0
DA:803,0
DA:804,0
DA:805,0
DA:806,0
DA:808,0
DA:810,0
DA:812,0
DA:813,0
DA:815,0
DA:817,0
DA:820,0
DA:822,0
DA:825,0
DA:827,0
DA:830,0
DA:832,0
DA:835,0
DA:837,0
DA:840,0
DA:842,0
DA:843,0
DA:845,0
DA:847,0
DA:849,0
DA:850,0
DA:853,0
DA:854,0
DA:855,0
DA:856,0
DA:858,0
DA:859,0
DA:860,0
DA:862,0
DA:864,0
DA:865,0
DA:867,0
DA:869,0
DA:870,0
DA:872,18
DA:874,18
DA:876,0
DA:878,0
DA:880,0
DA:881,0
DA:882,0
DA:887,0
DA:889,0
DA:890,0
DA:892,0
DA:893,0
DA:896,0
DA:898,18
LF:451
LH:168
end_of_record
TN:
SF:/Users/trungpham/Documents/splashkit-core/coresdk/src/coresdk/audio.cpp
FNL:0,0,14
FNA:0,4,__cxx_global_var_init
FNL:1,23,26
FNA:1,6,_ZN13splashkit_lib10open_audioEv
FNL:2,28,31
FNA:2,0,_ZN13splashkit_lib11close_audioEv
FNL:3,33,35
FNA:3,32,_ZN13splashkit_lib11audio_readyEv
FNF:4
FNH:3
DA:14,4
DA:23,6
DA:25,6
DA:26,6
DA:28,0
DA:30,0
DA:31,0
DA:33,32
DA:35,32
LF:9
LH:6
end_of_record
TN:
SF:/Users/trungpham/Documents/splashkit-core/coresdk/src/coresdk/basics.cpp
FNL:0,0,23
FNA:0,4,__cxx_global_var_init
FNL:1,113,122
FNA:1,28,_ZN13splashkit_lib10is_integerERKNSt3__112basic_stringIcNS0_11char_traitsIcEENS0_9allocatorIcEEEE
FNL:2,124,126
FNA:2,26,_ZN13splashkit_lib9is_doubleERKNSt3__112basic_stringIcNS0_11char_traitsIcEENS0_9allocatorIcEEEE
FNL:3,129,138
FNA:3,56,_ZN13splashkit_lib9is_numberERKNSt3__112basic_stringIcNS0_11char_traitsIcEENS0_9allocatorIcEEEE
FNL:4,140,142
FNA:4,42,_ZN13splashkit_lib18convert_to_integerERKNSt3__112basic_stringIcNS0_11char_traitsIcEENS0_9allocatorIcEEEE
FNL:5,145,147
FNA:5,50,_ZN13splashkit_lib17convert_to_doubleERKNSt3__112basic_stringIcNS0_11char_traitsIcEENS0_9allocatorIcEEEE
FNL:6,150,158
FNA:6,0,_ZN13splashkit_lib9is_binaryERKNSt3__112basic_stringIcNS0_11char_traitsIcEENS0_9allocatorIcEEEE
FNL:7,160,168
FNA:7,0,_ZN13splashkit_lib6is_hexERKNSt3__112basic_stringIcNS0_11char_traitsIcEENS0_9allocatorIcEEEE
FNL:8,170,178
FNA:8,0,_ZN13splashkit_lib8is_octalERKNSt3__112basic_stringIcNS0_11char_traitsIcEENS0_9allocatorIcEEEE
FNL:9,180,193
FNA:9,0,_ZN13splashkit_lib10dec_to_binEj
FNL:10,195,204
FNA:10,0,_ZN13splashkit_lib10bin_to_decERKNSt3__112basic_stringIcNS0_11char_traitsIcEENS0_9allocatorIcEEEE
FNL:11,206,239
FNA:11,0,_ZN13splashkit_lib10hex_to_binERKNSt3__112basic_stringIcNS0_11char_traitsIcEENS0_9allocatorIcEEEE
FNL:12,241,271
FNA:12,0,_ZN13splashkit_lib10bin_to_hexERKNSt3__112basic_stringIcNS0_11char_traitsIcEENS0_9allocatorIcEEEE
FNL:13,273,288
FNA:13,0,_ZN13splashkit_lib10dec_to_octEj
FNL:14,28,30
FNA:14,450,_ZN13splashkit_lib5ltrimERKNSt3__112basic_stringIcNS0_11char_traitsIcEENS0_9allocatorIcEEEE
FNL:15,290,299
FNA:15,0,_ZN13splashkit_lib10oct_to_decERKNSt3__112basic_stringIcNS0_11char_traitsIcEENS0_9allocatorIcEEEE
FNL:16,301,310
FNA:16,0,_ZN13splashkit_lib10hex_to_decERKNSt3__112basic_stringIcNS0_11char_traitsIcEENS0_9allocatorIcEEEE
FNL:17,31,33
FNA:17,422,_ZZN13splashkit_lib5ltrimERKNSt3__112basic_stringIcNS0_11char_traitsIcEENS0_9allocatorIcEEEEENK3$_0clEi
FNL:18,312,334
FNA:18,0,_ZN13splashkit_lib10oct_to_binERKNSt3__112basic_stringIcNS0_11char_traitsIcEENS0_9allocatorIcEEEE
FNL:19,336,365
FNA:19,0,_ZN13splashkit_lib10bin_to_octERKNSt3__112basic_stringIcNS0_11char_traitsIcEENS0_9allocatorIcEEEE
FNL:20,36,38
FNA:20,450,_ZN13splashkit_lib5rtrimERKNSt3__112basic_stringIcNS0_11char_traitsIcEENS0_9allocatorIcEEEE
FNL:21,367,377
FNA:21,0,_ZN13splashkit_lib10hex_to_octERKNSt3__112basic_stringIcNS0_11char_traitsIcEENS0_9allocatorIcEEEE
FNL:22,379,389
FNA:22,0,_ZN13splashkit_lib10oct_to_hexERKNSt3__112basic_stringIcNS0_11char_traitsIcEENS0_9allocatorIcEEEE
FNL:23,39,41
FNA:23,422,_ZZN13splashkit_lib5rtrimERKNSt3__112basic_stringIcNS0_11char_traitsIcEENS0_9allocatorIcEEEEENK3$_1clEi
FNL:24,391,420
FNA:24,0,_ZN13splashkit_lib13base64_encodeERKNSt3__112basic_stringIcNS0_11char_traitsIcEENS0_9allocatorIcEEEE
FNL:25,422,445
FNA:25,0,_ZN13splashkit_lib13base64_decodeERKNSt3__112basic_stringIcNS0_11char_traitsIcEENS0_9allocatorIcEEEE
FNL:26,44,47
FNA:26,450,_ZN13splashkit_lib4trimERKNSt3__112basic_stringIcNS0_11char_traitsIcEENS0_9allocatorIcEEEE
FNL:27,448,454
FNA:27,0,_ZN13splashkit_lib11square_rootEi
FNL:28,456,465
FNA:28,0,_ZN13splashkit_lib15is_prime_numberEi
FNL:29,467,482
FNA:29,0,_ZN13splashkit_lib23greatest_common_divisorEii
FNL:30,484,493
FNA:30,0,_ZN13splashkit_lib21least_common_multipleEii
FNL:31,49,54
FNA:31,8,_ZN13splashkit_lib12to_lowercaseERKNSt3__112basic_stringIcNS0_11char_traitsIcEENS0_9allocatorIcEEEE
FNL:32,56,61
FNA:32,8,_ZN13splashkit_lib12to_uppercaseERKNSt3__112basic_stringIcNS0_11char_traitsIcEENS0_9allocatorIcEEEE
FNL:33,63,65
FNA:33,4,_ZN13splashkit_lib9length_ofERKNSt3__112basic_stringIcNS0_11char_traitsIcEENS0_9allocatorIcEEEE
FNL:34,68,70
FNA:34,18,_ZN13splashkit_lib8containsERKNSt3__112basic_stringIcNS0_11char_traitsIcEENS0_9allocatorIcEEEES8_
FNL:35,73,79
FNA:35,36,_ZN13splashkit_lib8index_ofERKNSt3__112basic_stringIcNS0_11char_traitsIcEENS0_9allocatorIcEEEES8_
FNL:36,81,94
FNA:36,20,_ZN13splashkit_lib11replace_allERKNSt3__112basic_stringIcNS0_11char_traitsIcEENS0_9allocatorIcEEEES8_S8_
FNL:37,96,109
FNA:37,24,_ZN13splashkit_lib5splitERKNSt3__112basic_stringIcNS0_11char_traitsIcEENS0_9allocatorIcEEEEc
FNF:38
FNH:18
DA:23,4
DA:28,450
DA:30,450
DA:31,872
DA:32,450
DA:33,450
DA:36,450
DA:38,450
DA:39,872
DA:40,450
DA:41,450
DA:44,450
DA:46,450
DA:47,0
DA:49,8
DA:51,8
DA:52,8
DA:53,8
DA:54,8
DA:56,8
DA:58,8
DA:59,8
DA:60,8
DA:61,8
DA:63,4
DA:65,4
DA:68,18
DA:70,18
DA:73,36
DA:75,36
DA:76,36
DA:77,12
DA:78,24
DA:79,36
DA:81,20
DA:83,20
DA:84,4
DA:86,16
DA:87,16
DA:88,26
DA:90,10
DA:91,10
DA:93,16
DA:94,36
DA:96,24
DA:98,24
DA:99,24
DA:100,24
DA:101,48
DA:103,24
DA:104,24
DA:105,24
DA:107,24
DA:108,24
DA:109,24
DA:113,28
DA:115,28
DA:116,28
DA:119,18
DA:121,18
DA:122,28
DA:124,26
DA:126,26
DA:129,56
DA:131,56
DA:132,56
DA:135,36
DA:137,36
DA:138,56
DA:140,42
DA:142,42
DA:145,50
DA:147,50
DA:150,0
DA:152,0
DA:154,0
DA:155,0
DA:157,0
DA:158,0
DA:160,0
DA:162,0
DA:164,0
DA:165,0
DA:167,0
DA:168,0
DA:170,0
DA:172,0
DA:174,0
DA:175,0
DA:177,0
DA:178,0
DA:180,0
DA:183,0
DA:184,0
DA:186,0
DA:187,0
DA:189,0
DA:190,0
DA:192,0
DA:193,0
DA:195,0
DA:197,0
DA:199,0
DA:200,0
DA:203,0
DA:204,0
DA:206,0
DA:208,0
DA:210,0
DA:211,0
DA:214,0
DA:215,0
DA:217,0
DA:219,0
DA:220,0
DA:221,0
DA:222,0
DA:223,0
DA:224,0
DA:226,0
DA:228,0
DA:229,0
DA:232,0
DA:234,0
DA:235,0
DA:238,0
DA:239,0
DA:241,0
DA:243,0
DA:245,0
DA:246,0
DA:249,0
DA:250,0
DA:252,0
DA:253,0
DA:255,0
DA:257,0
DA:258,0
DA:260,0
DA:261,0
DA:262,0
DA:263,0
DA:265,0
DA:266,0
DA:268,0
DA:269,0
DA:270,0
DA:271,0
DA:273,0
DA:275,0
DA:277,0
DA:278,0
DA:281,0
DA:282,0
DA:284,0
DA:285,0
DA:287,0
DA:288,0
DA:290,0
DA:292,0
DA:294,0
DA:295,0
DA:298,0
DA:299,0
DA:301,0
DA:303,0
DA:305,0
DA:306,0
DA:309,0
DA:310,0
DA:312,0
DA:314,0
DA:316,0
DA:317,0
DA:320,0
DA:321,0
DA:323,0
DA:326,0
DA:328,0
DA:329,0
DA:332,0
DA:333,0
DA:334,0
DA:336,0
DA:338,0
DA:340,0
DA:341,0
DA:344,0
DA:347,0
DA:348,0
DA:350,0
DA:352,0
DA:353,0
DA:355,0
DA:356,0
DA:357,0
DA:358,0
DA:360,0
DA:361,0
DA:363,0
DA:364,0
DA:365,0
DA:367,0
DA:369,0
DA:371,0
DA:372,0
DA:375,0
DA:376,0
DA:377,0
DA:379,0
DA:381,0
DA:383,0
DA:384,0
DA:387,0
DA:388,0
DA:389,0
DA:391,0
DA:393,0
DA:394,0
DA:395,0
DA:397,0
DA:399,0
DA:400,0
DA:402,0
DA:404,0
DA:405,0
DA:409,0
DA:411,0
DA:412,0
DA:414,0
DA:416,0
DA:419,0
DA:420,0
DA:422,0
DA:424,0
DA:425,0
DA:426,0
DA:428,0
DA:430,0
DA:431,0
DA:432,0
DA:435,0
DA:436,0
DA:438,0
DA:440,0
DA:441,0
DA:442,0
DA:444,0
DA:445,0
DA:448,0
DA:450,0
DA:451,0
DA:453,0
DA:454,0
DA:456,0
DA:458,0
DA:459,0
DA:461,0
DA:462,0
DA:463,0
DA:464,0
DA:465,0
DA:467,0
DA:469,0
DA:471,0
DA:472,0
DA:475,0
DA:477,0
DA:478,0
DA:479,0
DA:481,0
DA:482,0
DA:484,0
DA:486,0
DA:488,0
DA:489,0
DA:492,0
DA:493,0
LF:278
LH:72
end_of_record
TN:
SF:/Users/trungpham/Documents/splashkit-core/coresdk/src/coresdk/camera.cpp
FNL:0,104,106
FNA:0,0,_ZN13splashkit_lib10to_world_xEd
FNL:1,109,111
FNA:1,0,_ZN13splashkit_lib10to_world_yEd
FNL:2,114,116
FNA:2,0,_ZN13splashkit_lib8to_worldERKNS_8point_2dE
FNL:3,124,126
FNA:3,0,_ZN13splashkit_lib14rect_on_screenERKNS_9rectangleE
FNL:4,129,131
FNA:4,0,_ZN13splashkit_lib15point_on_screenERKNS_8point_2dE
FNL:5,134,136
FNA:5,0,_ZN13splashkit_lib14rect_in_windowEPNS_12_window_dataERKNS_9rectangleE
FNL:6,139,141
FNA:6,0,_ZN13splashkit_lib15point_in_windowEPNS_12_window_dataERKNS_8point_2dE
FNL:7,149,153
FNA:7,0,_ZN13splashkit_lib14move_camera_toEdd
FNL:8,155,158
FNA:8,0,_ZN13splashkit_lib14move_camera_toERKNS_8point_2dE
FNL:9,160,164
FNA:9,0,_ZN13splashkit_lib14move_camera_byEdd
FNL:10,166,169
FNA:10,0,_ZN13splashkit_lib14move_camera_byERKNS_9vector_2dE
FNL:11,171,179
FNA:11,0,_ZN13splashkit_lib16center_camera_onEPNS_12_sprite_dataEdd
FNL:12,181,184
FNA:12,0,_ZN13splashkit_lib16center_camera_onEPNS_12_sprite_dataERKNS_9vector_2dE
FNL:13,23,25
FNA:13,0,_ZN13splashkit_lib8camera_xEv
FNL:14,28,30
FNA:14,0,_ZN13splashkit_lib8camera_yEv
FNL:15,33,36
FNA:15,0,_ZN13splashkit_lib12set_camera_xEd
FNL:16,38,41
FNA:16,0,_ZN13splashkit_lib12set_camera_yEd
FNL:17,43,47
FNA:17,0,_ZN13splashkit_lib19set_camera_positionENS_8point_2dE
FNL:18,49,51
FNA:18,0,_ZN13splashkit_lib15camera_positionEv
FNL:19,54,56
FNA:19,0,_ZN13splashkit_lib13screen_centerEv
FNL:20,65,67
FNA:20,0,_ZN13splashkit_lib11to_screen_xEd
FNL:21,70,72
FNA:21,0,_ZN13splashkit_lib11to_screen_yEd
FNL:22,75,77
FNA:22,0,_ZN13splashkit_lib9to_screenERKNS_8point_2dE
FNL:23,80,82
FNA:23,0,_ZN13splashkit_lib22vector_world_to_screenEv
FNL:24,85,87
FNA:24,0,_ZN13splashkit_lib9to_screenERKNS_9rectangleE
FNL:25,90,92
FNA:25,0,_ZN13splashkit_lib16screen_rectangleEv
FNL:26,95,97
FNA:26,0,_ZN13splashkit_lib11window_areaEPNS_12_window_dataE
FNF:27
FNH:0
DA:23,0
DA:25,0
DA:28,0
DA:30,0
DA:33,0
DA:35,0
DA:36,0
DA:38,0
DA:40,0
DA:41,0
DA:43,0
DA:45,0
DA:46,0
DA:47,0
DA:49,0
DA:51,0
DA:54,0
DA:56,0
DA:65,0
DA:67,0
DA:70,0
DA:72,0
DA:75,0
DA:77,0
DA:80,0
DA:82,0
DA:85,0
DA:87,0
DA:90,0
DA:92,0
DA:95,0
DA:97,0
DA:104,0
DA:106,0
DA:109,0
DA:111,0
DA:114,0
DA:116,0
DA:124,0
DA:126,0
DA:129,0
DA:131,0
DA:134,0
DA:136,0
DA:139,0
DA:141,0
DA:149,0
DA:151,0
DA:152,0
DA:153,0
DA:155,0
DA:157,0
DA:158,0
DA:160,0
DA:162,0
DA:163,0
DA:164,0
DA:166,0
DA:168,0
DA:169,0
DA:171,0
DA:173,0
DA:175,0
DA:176,0
DA:178,0
DA:179,0
DA:181,0
DA:183,0
DA:184,0
LF:69
LH:0
end_of_record
TN:
SF:/Users/trungpham/Documents/splashkit-core/coresdk/src/coresdk/circle_geometry.cpp
FNL:0,101,105
FNA:0,0,_ZN13splashkit_lib23circle_ray_intersectionERKNS_8point_2dERKNS_9vector_2dERKNS_6circleE
FNL:1,108,134
FNA:1,0,_ZN13splashkit_lib23circle_ray_intersectionERKNS_8point_2dERKNS_9vector_2dERKNS_6circleERS0_Rd
FNL:2,136,138
FNA:2,30,_ZN13splashkit_lib17circles_intersectENS_6circleES0_
FNL:3,141,143
FNA:3,6,_ZN13splashkit_lib17circles_intersectEdddddd
FNL:4,146,149
FNA:4,18,_ZN13splashkit_lib25circle_triangle_intersectERKNS_6circleERKNS_8triangleE
FNL:5,152,168
FNA:5,22,_ZN13splashkit_lib25circle_triangle_intersectERKNS_6circleERKNS_8triangleERNS_8point_2dE
FNL:6,170,174
FNA:6,0,_ZN13splashkit_lib37closest_point_on_triangle_from_circleERKNS_6circleERKNS_8triangleE
FNL:7,177,179
FNA:7,2,_ZN13splashkit_lib13circle_radiusENS_6circleE
FNL:8,182,184
FNA:8,2,_ZN13splashkit_lib8circle_xERKNS_6circleE
FNL:9,187,189
FNA:9,2,_ZN13splashkit_lib8circle_yERKNS_6circleE
FNL:10,192,194
FNA:10,12,_ZN13splashkit_lib23closest_point_on_circleERKNS_8point_2dERKNS_6circleE
FNL:11,197,199
FNA:11,8,_ZN13splashkit_lib33closest_point_on_line_from_circleERKNS_6circleERKNS_4lineE
FNL:12,202,206
FNA:12,8,_ZN13splashkit_lib33closest_point_on_rect_from_circleERKNS_6circleERKNS_9rectangleE
FNL:13,208,229
FNA:13,6,_ZN13splashkit_lib14tangent_pointsERKNS_8point_2dERKNS_6circleERS0_S6_
FNL:14,21,26
FNA:14,110,_ZN13splashkit_lib9circle_atERKNS_8point_2dEd
FNL:15,231,244
FNA:15,8,_ZN13splashkit_lib21circle_quad_intersectERKNS_6circleERKNS_4quadE
FNL:16,29,31
FNA:16,76,_ZN13splashkit_lib9circle_atEddd
FNL:17,34,36
FNA:17,2,_ZN13splashkit_lib12center_pointERKNS_6circleE
FNL:18,39,43
FNA:18,6,_ZN13splashkit_lib13widest_pointsERKNS_6circleERKNS_9vector_2dERNS_8point_2dES7_
FNL:19,45,47
FNA:19,4,_ZN13splashkit_lib23distant_point_on_circleERKNS_8point_2dERKNS_6circleE
FNL:20,50,79
FNA:20,6,_ZN13splashkit_lib31distant_point_on_circle_headingERKNS_8point_2dERKNS_6circleERKNS_9vector_2dERS0_
FNL:21,81,99
FNA:21,20,_ZN13splashkit_lib29ray_circle_intersect_distanceERKNS_8point_2dERKNS_9vector_2dERKNS_6circleE
FNF:22
FNH:19
DA:21,110
DA:24,110
DA:25,110
DA:26,110
DA:29,76
DA:31,76
DA:34,2
DA:36,2
DA:39,6
DA:41,6
DA:42,6
DA:43,6
DA:45,4
DA:47,4
DA:50,6
DA:56,6
DA:60,6
DA:63,6
DA:64,6
DA:67,4
DA:72,4
DA:73,4
DA:76,4
DA:78,4
DA:79,6
DA:81,20
DA:86,20
DA:87,20
DA:88,20
DA:90,20
DA:91,20
DA:93,20
DA:95,2
DA:98,18
DA:99,20
DA:101,0
DA:105,0
DA:108,0
DA:110,0
DA:113,0
DA:115,0
DA:118,0
DA:120,0
DA:121,0
DA:122,0
DA:125,0
DA:126,0
DA:128,0
DA:131,0
DA:132,0
DA:133,0
DA:134,0
DA:136,30
DA:138,30
DA:141,6
DA:143,6
DA:146,18
DA:149,18
DA:152,22
DA:155,22
DA:157,14
DA:158,14
DA:163,8
DA:167,8
DA:168,22
DA:170,0
DA:173,0
DA:174,0
DA:177,2
DA:179,2
DA:182,2
DA:184,2
DA:187,2
DA:189,2
DA:192,12
DA:194,12
DA:197,8
DA:199,8
DA:202,8
DA:205,8
DA:206,0
DA:208,6
DA:210,6
DA:212,6
DA:213,6
DA:216,6
DA:217,2
DA:220,4
DA:221,4
DA:223,4
DA:224,4
DA:225,4
DA:226,4
DA:228,4
DA:229,6
DA:231,8
DA:233,8
DA:235,12
DA:237,10
DA:239,6
DA:241,4
DA:243,2
DA:244,8
LF:103
LH:82
end_of_record
TN:
SF:/Users/trungpham/Documents/splashkit-core/coresdk/src/coresdk/collisions.cpp
FNL:0,0,32
FNA:0,4,__cxx_global_var_init
FNA:0,4,__cxx_global_var_init.1
FNA:0,4,__cxx_global_var_init.2
FNA:0,4,__cxx_global_var_init.3
FNA:0,4,__cxx_global_var_init.4
FNA:0,4,__cxx_global_var_init.5
FNA:0,4,__cxx_global_var_init.6
FNA:0,4,__cxx_global_var_init.7
FNA:0,4,__cxx_global_var_init.8
FNL:1,1000,1002
FNA:1,0,_ZN13splashkit_lib29calculate_collision_directionEPNS_12_sprite_dataERKNS_9rectangleE
FNL:2,1005,1007
FNA:2,0,_ZN13splashkit_lib29calculate_collision_directionEPNS_12_sprite_dataERKNS_6circleE
FNL:3,1010,1012
FNA:3,0,_ZN13splashkit_lib29calculate_collision_directionEPNS_12_sprite_dataERKNS_8triangleE
FNL:4,1015,1017
FNA:4,0,_ZN13splashkit_lib29calculate_collision_directionEPNS_12_sprite_dataERKNS_4quadE
FNL:5,1020,1022
FNA:5,0,_ZN13splashkit_lib29calculate_collision_directionERKNS_9rectangleEPNS_12_sprite_dataE
FNL:6,1025,1027
FNA:6,0,_ZN13splashkit_lib29calculate_collision_directionERKNS_9rectangleES2_
FNL:7,1030,1032
FNA:7,0,_ZN13splashkit_lib29calculate_collision_directionERKNS_9rectangleERKNS_6circleE
FNL:8,1035,1037
FNA:8,0,_ZN13splashkit_lib29calculate_collision_directionERKNS_9rectangleERKNS_8triangleE
FNL:9,1040,1042
FNA:9,0,_ZN13splashkit_lib29calculate_collision_directionERKNS_9rectangleERKNS_4quadE
FNL:10,1045,1047
FNA:10,0,_ZN13splashkit_lib29calculate_collision_directionERKNS_6circleEPNS_12_sprite_dataE
FNL:11,1050,1052
FNA:11,0,_ZN13splashkit_lib29calculate_collision_directionERKNS_6circleERKNS_9rectangleE
FNL:12,1055,1057
FNA:12,0,_ZN13splashkit_lib29calculate_collision_directionERKNS_6circleES2_
FNL:13,1060,1062
FNA:13,0,_ZN13splashkit_lib29calculate_collision_directionERKNS_6circleERKNS_8triangleE
FNL:14,1065,1067
FNA:14,0,_ZN13splashkit_lib29calculate_collision_directionERKNS_6circleERKNS_4quadE
FNL:15,1070,1072
FNA:15,0,_ZN13splashkit_lib29calculate_collision_directionERKNS_8triangleEPNS_12_sprite_dataE
FNL:16,1075,1077
FNA:16,0,_ZN13splashkit_lib29calculate_collision_directionERKNS_8triangleERKNS_9rectangleE
FNL:17,1080,1082
FNA:17,0,_ZN13splashkit_lib29calculate_collision_directionERKNS_8triangleERKNS_6circleE
FNL:18,1085,1087
FNA:18,0,_ZN13splashkit_lib29calculate_collision_directionERKNS_8triangleES2_
FNL:19,1090,1092
FNA:19,0,_ZN13splashkit_lib29calculate_collision_directionERKNS_8triangleERKNS_4quadE
FNL:20,1095,1097
FNA:20,0,_ZN13splashkit_lib29calculate_collision_directionERKNS_4quadEPNS_12_sprite_dataE
FNL:21,1100,1102
FNA:21,0,_ZN13splashkit_lib29calculate_collision_directionERKNS_4quadERKNS_9rectangleE
FNL:22,1105,1107
FNA:22,0,_ZN13splashkit_lib29calculate_collision_directionERKNS_4quadERKNS_6circleE
FNL:23,1110,1112
FNA:23,0,_ZN13splashkit_lib29calculate_collision_directionERKNS_4quadERKNS_8triangleE
FNL:24,1115,1117
FNA:24,0,_ZN13splashkit_lib29calculate_collision_directionERKNS_4quadES2_
FNL:25,1120,1122
FNA:25,0,_ZN13splashkit_lib17resolve_collisionEPNS_12_sprite_dataES1_RKNS_9vector_2dE
FNL:26,1125,1127
FNA:26,0,_ZN13splashkit_lib17resolve_collisionEPNS_12_sprite_dataERKNS_9rectangleERKNS_9vector_2dE
FNL:27,1130,1132
FNA:27,0,_ZN13splashkit_lib17resolve_collisionEPNS_12_sprite_dataERKNS_6circleERKNS_9vector_2dE
FNL:28,1135,1137
FNA:28,0,_ZN13splashkit_lib17resolve_collisionEPNS_12_sprite_dataERKNS_8triangleERKNS_9vector_2dE
FNL:29,1140,1142
FNA:29,0,_ZN13splashkit_lib17resolve_collisionEPNS_12_sprite_dataERKNS_4quadERKNS_9vector_2dE
FNL:30,1145,1147
FNA:30,0,_ZN13splashkit_lib17resolve_collisionERNS_9rectangleEPNS_12_sprite_dataERKNS_9vector_2dE
FNL:31,1150,1152
FNA:31,0,_ZN13splashkit_lib17resolve_collisionERNS_9rectangleERKS0_RKNS_9vector_2dE
FNL:32,1155,1157
FNA:32,0,_ZN13splashkit_lib17resolve_collisionERNS_9rectangleERKNS_6circleERKNS_9vector_2dE
FNL:33,1160,1162
FNA:33,0,_ZN13splashkit_lib17resolve_collisionERNS_9rectangleERKNS_8triangleERKNS_9vector_2dE
FNL:34,1165,1167
FNA:34,0,_ZN13splashkit_lib17resolve_collisionERNS_9rectangleERKNS_4quadERKNS_9vector_2dE
FNL:35,1170,1172
FNA:35,0,_ZN13splashkit_lib17resolve_collisionERNS_6circleEPNS_12_sprite_dataERKNS_9vector_2dE
FNL:36,1175,1177
FNA:36,0,_ZN13splashkit_lib17resolve_collisionERNS_6circleERKNS_9rectangleERKNS_9vector_2dE
FNL:37,1180,1182
FNA:37,0,_ZN13splashkit_lib17resolve_collisionERNS_6circleERKS0_RKNS_9vector_2dE
FNL:38,1185,1187
FNA:38,0,_ZN13splashkit_lib17resolve_collisionERNS_6circleERKNS_8triangleERKNS_9vector_2dE
FNL:39,1190,1192
FNA:39,0,_ZN13splashkit_lib17resolve_collisionERNS_6circleERKNS_4quadERKNS_9vector_2dE
FNL:40,1195,1197
FNA:40,0,_ZN13splashkit_lib17resolve_collisionERNS_8triangleEPNS_12_sprite_dataERKNS_9vector_2dE
FNL:41,1200,1202
FNA:41,0,_ZN13splashkit_lib17resolve_collisionERNS_8triangleERKNS_9rectangleERKNS_9vector_2dE
FNL:42,1205,1207
FNA:42,0,_ZN13splashkit_lib17resolve_collisionERNS_8triangleERKNS_6circleERKNS_9vector_2dE
FNL:43,1210,1212
FNA:43,0,_ZN13splashkit_lib17resolve_collisionERNS_8triangleERKS0_RKNS_9vector_2dE
FNL:44,1215,1217
FNA:44,0,_ZN13splashkit_lib17resolve_collisionERNS_8triangleERKNS_4quadERKNS_9vector_2dE
FNL:45,1220,1222
FNA:45,0,_ZN13splashkit_lib17resolve_collisionERNS_4quadEPNS_12_sprite_dataERKNS_9vector_2dE
FNL:46,1225,1227
FNA:46,0,_ZN13splashkit_lib17resolve_collisionERNS_4quadERKNS_9rectangleERKNS_9vector_2dE
FNL:47,1230,1232
FNA:47,0,_ZN13splashkit_lib17resolve_collisionERNS_4quadERKNS_6circleERKNS_9vector_2dE
FNL:48,1235,1237
FNA:48,0,_ZN13splashkit_lib17resolve_collisionERNS_4quadERKNS_8triangleERKNS_9vector_2dE
FNL:49,1240,1242
FNA:49,0,_ZN13splashkit_lib17resolve_collisionERNS_4quadERKS0_RKNS_9vector_2dE
FNL:50,131,134
FNA:50,4,_ZN13splashkit_lib48_collision_within_bitmap_images_with_translationEPNS_12_bitmap_dataEiRKNS_9matrix_2dES1_iS4_
FNL:51,135,154
FNA:51,7124,_ZZN13splashkit_lib48_collision_within_bitmap_images_with_translationEPNS_12_bitmap_dataEiRKNS_9matrix_2dES1_iS4_ENK3$_0clEiiii
FNL:52,156,158
FNA:52,0,_ZN13splashkit_lib19_opposite_directionERKNS_9vector_2dE
FNL:53,161,163
FNA:53,0,_ZN13splashkit_lib15_test_collisionERKPNS_12_sprite_dataES3_
FNL:54,166,168
FNA:54,0,_ZN13splashkit_lib15_test_collisionERKPNS_12_sprite_dataERKNS_9rectangleE
FNL:55,171,173
FNA:55,0,_ZN13splashkit_lib15_test_collisionERKPNS_12_sprite_dataERKNS_6circleE
FNL:56,176,178
FNA:56,0,_ZN13splashkit_lib15_test_collisionERKPNS_12_sprite_dataERKNS_8triangleE
FNL:57,181,183
FNA:57,0,_ZN13splashkit_lib15_test_collisionERKPNS_12_sprite_dataERKNS_4quadE
FNL:58,186,188
FNA:58,0,_ZN13splashkit_lib15_test_collisionERKNS_9rectangleERKPNS_12_sprite_dataE
FNL:59,191,193
FNA:59,0,_ZN13splashkit_lib15_test_collisionERKNS_9rectangleES2_
FNL:60,196,198
FNA:60,0,_ZN13splashkit_lib15_test_collisionERKNS_9rectangleERKNS_6circleE
FNL:61,201,203
FNA:61,0,_ZN13splashkit_lib15_test_collisionERKNS_9rectangleERKNS_8triangleE
FNL:62,206,208
FNA:62,0,_ZN13splashkit_lib15_test_collisionERKNS_9rectangleERKNS_4quadE
FNL:63,211,213
FNA:63,0,_ZN13splashkit_lib15_test_collisionERKNS_6circleERKPNS_12_sprite_dataE
FNL:64,216,218
FNA:64,0,_ZN13splashkit_lib15_test_collisionERKNS_6circleERKNS_9rectangleE
FNL:65,221,223
FNA:65,0,_ZN13splashkit_lib15_test_collisionERKNS_6circleES2_
FNL:66,226,228
FNA:66,0,_ZN13splashkit_lib15_test_collisionERKNS_6circleERKNS_8triangleE
FNL:67,231,233
FNA:67,0,_ZN13splashkit_lib15_test_collisionERKNS_6circleERKNS_4quadE
FNL:68,236,238
FNA:68,0,_ZN13splashkit_lib15_test_collisionERKNS_8triangleERKPNS_12_sprite_dataE
FNL:69,241,243
FNA:69,0,_ZN13splashkit_lib15_test_collisionERKNS_8triangleERKNS_9rectangleE
FNL:70,246,248
FNA:70,0,_ZN13splashkit_lib15_test_collisionERKNS_8triangleERKNS_6circleE
FNL:71,251,253
FNA:71,0,_ZN13splashkit_lib15_test_collisionERKNS_8triangleES2_
FNL:72,256,258
FNA:72,0,_ZN13splashkit_lib15_test_collisionERKNS_8triangleERKNS_4quadE
FNL:73,261,263
FNA:73,0,_ZN13splashkit_lib15_test_collisionERKNS_4quadERKPNS_12_sprite_dataE
FNL:74,266,268
FNA:74,0,_ZN13splashkit_lib15_test_collisionERKNS_4quadERKNS_9rectangleE
FNL:75,271,273
FNA:75,0,_ZN13splashkit_lib15_test_collisionERKNS_4quadERKNS_6circleE
FNL:76,276,278
FNA:76,0,_ZN13splashkit_lib15_test_collisionERKNS_4quadERKNS_8triangleE
FNL:77,281,283
FNA:77,0,_ZN13splashkit_lib15_test_collisionERKNS_4quadES2_
FNL:78,286,290
FNA:78,0,_ZN13splashkit_lib19_move_obj_by_vectorERPNS_12_sprite_dataERKNS_9vector_2dE
FNL:79,292,296
FNA:79,0,_ZN13splashkit_lib19_move_obj_by_vectorERNS_9rectangleERKNS_9vector_2dE
FNL:80,298,302
FNA:80,0,_ZN13splashkit_lib19_move_obj_by_vectorERNS_6circleERKNS_9vector_2dE
FNL:81,304,312
FNA:81,0,_ZN13splashkit_lib19_move_obj_by_vectorERNS_8triangleERKNS_9vector_2dE
FNL:82,314,324
FNA:82,0,_ZN13splashkit_lib19_move_obj_by_vectorERNS_4quadERKNS_9vector_2dE
FNL:83,326,328
FNA:83,0,_ZN13splashkit_lib12_object_AABBERKPNS_12_sprite_dataE
FNL:84,331,333
FNA:84,0,_ZN13splashkit_lib12_object_AABBERKNS_9rectangleE
FNL:85,336,338
FNA:85,0,_ZN13splashkit_lib12_object_AABBERKNS_6circleE
FNL:86,341,343
FNA:86,0,_ZN13splashkit_lib12_object_AABBERKNS_8triangleE
FNL:87,346,348
FNA:87,0,_ZN13splashkit_lib12_object_AABBERKNS_4quadE
FNL:88,352,354
FNA:88,0,_ZN13splashkit_lib15_collision_kindINS_4quadEEENS_19collision_test_kindERKT_
FNA:88,0,_ZN13splashkit_lib15_collision_kindINS_6circleEEENS_19collision_test_kindERKT_
FNA:88,0,_ZN13splashkit_lib15_collision_kindINS_8triangleEEENS_19collision_test_kindERKT_
FNL:89,358,360
FNA:89,0,_ZN13splashkit_lib15_collision_kindINS_9rectangleEEENS_19collision_test_kindERKT_
FNL:90,364,366
FNA:90,0,_ZN13splashkit_lib15_collision_kindIPNS_12_sprite_dataEEENS_19collision_test_kindERKT_
FNL:91,369,376
FNA:91,0,_ZN13splashkit_lib41_compare_point_collision_depth_horizontalERKNS_8point_2dES2_
FNL:92,378,385
FNA:92,0,_ZN13splashkit_lib39_compare_point_collision_depth_verticalERKNS_8point_2dES2_
FNL:93,387,409
FNA:93,0,_ZN13splashkit_lib41_calculate_containing_collision_directionERKNS_9rectangleES2_
FNL:94,39,129
FNA:94,28,_ZN13splashkit_lib20_step_through_pixelsEddRKNS_9matrix_2dEddS2_NSt3__18functionIFbiiiiEEE
FNL:95,411,473
FNA:95,0,_ZN13splashkit_lib40_rectangle_rectangle_collision_directionERKNS_9rectangleES2_
FNL:96,476,485
FNA:96,0,_ZN13splashkit_lib25_move_object_by_directionINS_4quadEEEvRT_RKNS_9vector_2dES6_
FNA:96,0,_ZN13splashkit_lib25_move_object_by_directionINS_6circleEEEvRT_RKNS_9vector_2dES6_
FNA:96,0,_ZN13splashkit_lib25_move_object_by_directionINS_8triangleEEEvRT_RKNS_9vector_2dES6_
FNA:96,0,_ZN13splashkit_lib25_move_object_by_directionINS_9rectangleEEEvRT_RKNS_9vector_2dES6_
FNA:96,0,_ZN13splashkit_lib25_move_object_by_directionIPNS_12_sprite_dataEEEvRT_RKNS_9vector_2dES7_
FNL:97,488,516
FNA:97,0,_ZN13splashkit_lib42_move_object_by_direction_relative_to_sizeINS_4quadEEEvRT_RKNS_9vector_2dEd
FNA:97,0,_ZN13splashkit_lib42_move_object_by_direction_relative_to_sizeINS_6circleEEEvRT_RKNS_9vector_2dEd
FNA:97,0,_ZN13splashkit_lib42_move_object_by_direction_relative_to_sizeINS_8triangleEEEvRT_RKNS_9vector_2dEd
FNA:97,0,_ZN13splashkit_lib42_move_object_by_direction_relative_to_sizeINS_9rectangleEEEvRT_RKNS_9vector_2dEd
FNA:97,0,_ZN13splashkit_lib42_move_object_by_direction_relative_to_sizeIPNS_12_sprite_dataEEEvRT_RKNS_9vector_2dEd
FNL:98,523,542
FNA:98,0,_ZN13splashkit_lib29_bracket_obj_collision_singleINS_4quadEEEbbiRT_RKNS_9vector_2dE
FNA:98,0,_ZN13splashkit_lib29_bracket_obj_collision_singleINS_6circleEEEbbiRT_RKNS_9vector_2dE
FNA:98,0,_ZN13splashkit_lib29_bracket_obj_collision_singleINS_8triangleEEEbbiRT_RKNS_9vector_2dE
FNA:98,0,_ZN13splashkit_lib29_bracket_obj_collision_singleINS_9rectangleEEEbbiRT_RKNS_9vector_2dE
FNA:98,0,_ZN13splashkit_lib29_bracket_obj_collision_singleIPNS_12_sprite_dataEEEbbiRT_RKNS_9vector_2dE
FNL:99,545,556
FNA:99,0,_ZN13splashkit_lib26_bracket_obj_obj_collisionINS_4quadENS_6circleEEEvRT_RKT0_RKNS_9vector_2dEi
FNA:99,0,_ZN13splashkit_lib26_bracket_obj_obj_collisionINS_4quadENS_8triangleEEEvRT_RKT0_RKNS_9vector_2dEi
FNA:99,0,_ZN13splashkit_lib26_bracket_obj_obj_collisionINS_4quadENS_9rectangleEEEvRT_RKT0_RKNS_9vector_2dEi
FNA:99,0,_ZN13splashkit_lib26_bracket_obj_obj_collisionINS_4quadEPNS_12_sprite_dataEEEvRT_RKT0_RKNS_9vector_2dEi
FNA:99,0,_ZN13splashkit_lib26_bracket_obj_obj_collisionINS_4quadES1_EEvRT_RKT0_RKNS_9vector_2dEi
FNA:99,0,_ZN13splashkit_lib26_bracket_obj_obj_collisionINS_6circleENS_4quadEEEvRT_RKT0_RKNS_9vector_2dEi
FNA:99,0,_ZN13splashkit_lib26_bracket_obj_obj_collisionINS_6circleENS_8triangleEEEvRT_RKT0_RKNS_9vector_2dEi
FNA:99,0,_ZN13splashkit_lib26_bracket_obj_obj_collisionINS_6circleENS_9rectangleEEEvRT_RKT0_RKNS_9vector_2dEi
FNA:99,0,_ZN13splashkit_lib26_bracket_obj_obj_collisionINS_6circleEPNS_12_sprite_dataEEEvRT_RKT0_RKNS_9vector_2dEi
FNA:99,0,_ZN13splashkit_lib26_bracket_obj_obj_collisionINS_6circleES1_EEvRT_RKT0_RKNS_9vector_2dEi
FNA:99,0,_ZN13splashkit_lib26_bracket_obj_obj_collisionINS_8triangleENS_4quadEEEvRT_RKT0_RKNS_9vector_2dEi
FNA:99,0,_ZN13splashkit_lib26_bracket_obj_obj_collisionINS_8triangleENS_6circleEEEvRT_RKT0_RKNS_9vector_2dEi
FNA:99,0,_ZN13splashkit_lib26_bracket_obj_obj_collisionINS_8triangleENS_9rectangleEEEvRT_RKT0_RKNS_9vector_2dEi
FNA:99,0,_ZN13splashkit_lib26_bracket_obj_obj_collisionINS_8triangleEPNS_12_sprite_dataEEEvRT_RKT0_RKNS_9vector_2dEi
FNA:99,0,_ZN13splashkit_lib26_bracket_obj_obj_collisionINS_8triangleES1_EEvRT_RKT0_RKNS_9vector_2dEi
FNA:99,0,_ZN13splashkit_lib26_bracket_obj_obj_collisionINS_9rectangleENS_4quadEEEvRT_RKT0_RKNS_9vector_2dEi
FNA:99,0,_ZN13splashkit_lib26_bracket_obj_obj_collisionINS_9rectangleENS_6circleEEEvRT_RKT0_RKNS_9vector_2dEi
FNA:99,0,_ZN13splashkit_lib26_bracket_obj_obj_collisionINS_9rectangleENS_8triangleEEEvRT_RKT0_RKNS_9vector_2dEi
FNA:99,0,_ZN13splashkit_lib26_bracket_obj_obj_collisionINS_9rectangleEPNS_12_sprite_dataEEEvRT_RKT0_RKNS_9vector_2dEi
FNA:99,0,_ZN13splashkit_lib26_bracket_obj_obj_collisionINS_9rectangleES1_EEvRT_RKT0_RKNS_9vector_2dEi
FNA:99,0,_ZN13splashkit_lib26_bracket_obj_obj_collisionIPNS_12_sprite_dataENS_4quadEEEvRT_RKT0_RKNS_9vector_2dEi
FNA:99,0,_ZN13splashkit_lib26_bracket_obj_obj_collisionIPNS_12_sprite_dataENS_6circleEEEvRT_RKT0_RKNS_9vector_2dEi
FNA:99,0,_ZN13splashkit_lib26_bracket_obj_obj_collisionIPNS_12_sprite_dataENS_8triangleEEEvRT_RKT0_RKNS_9vector_2dEi
FNA:99,0,_ZN13splashkit_lib26_bracket_obj_obj_collisionIPNS_12_sprite_dataENS_9rectangleEEEvRT_RKT0_RKNS_9vector_2dEi
FNA:99,0,_ZN13splashkit_lib26_bracket_obj_obj_collisionIPNS_12_sprite_dataES2_EEvRT_RKT0_RKNS_9vector_2dEi
FNL:100,559,567
FNA:100,0,_ZN13splashkit_lib37_calculate_object_collision_directionINS_4quadENS_6circleEEENS_9vector_2dERKT_RKT0_
FNA:100,0,_ZN13splashkit_lib37_calculate_object_collision_directionINS_4quadENS_8triangleEEENS_9vector_2dERKT_RKT0_
FNA:100,0,_ZN13splashkit_lib37_calculate_object_collision_directionINS_4quadENS_9rectangleEEENS_9vector_2dERKT_RKT0_
FNA:100,0,_ZN13splashkit_lib37_calculate_object_collision_directionINS_4quadEPNS_12_sprite_dataEEENS_9vector_2dERKT_RKT0_
FNA:100,0,_ZN13splashkit_lib37_calculate_object_collision_directionINS_4quadES1_EENS_9vector_2dERKT_RKT0_
FNA:100,0,_ZN13splashkit_lib37_calculate_object_collision_directionINS_6circleENS_4quadEEENS_9vector_2dERKT_RKT0_
FNA:100,0,_ZN13splashkit_lib37_calculate_object_collision_directionINS_6circleENS_8triangleEEENS_9vector_2dERKT_RKT0_
FNA:100,0,_ZN13splashkit_lib37_calculate_object_collision_directionINS_6circleENS_9rectangleEEENS_9vector_2dERKT_RKT0_
FNA:100,0,_ZN13splashkit_lib37_calculate_object_collision_directionINS_6circleEPNS_12_sprite_dataEEENS_9vector_2dERKT_RKT0_
FNA:100,0,_ZN13splashkit_lib37_calculate_object_collision_directionINS_6circleES1_EENS_9vector_2dERKT_RKT0_
FNA:100,0,_ZN13splashkit_lib37_calculate_object_collision_directionINS_8triangleENS_4quadEEENS_9vector_2dERKT_RKT0_
FNA:100,0,_ZN13splashkit_lib37_calculate_object_collision_directionINS_8triangleENS_6circleEEENS_9vector_2dERKT_RKT0_
FNA:100,0,_ZN13splashkit_lib37_calculate_object_collision_directionINS_8triangleENS_9rectangleEEENS_9vector_2dERKT_RKT0_
FNA:100,0,_ZN13splashkit_lib37_calculate_object_collision_directionINS_8triangleEPNS_12_sprite_dataEEENS_9vector_2dERKT_RKT0_
FNA:100,0,_ZN13splashkit_lib37_calculate_object_collision_directionINS_8triangleES1_EENS_9vector_2dERKT_RKT0_
FNA:100,0,_ZN13splashkit_lib37_calculate_object_collision_directionINS_9rectangleENS_4quadEEENS_9vector_2dERKT_RKT0_
FNA:100,0,_ZN13splashkit_lib37_calculate_object_collision_directionINS_9rectangleENS_6circleEEENS_9vector_2dERKT_RKT0_
FNA:100,0,_ZN13splashkit_lib37_calculate_object_collision_directionINS_9rectangleENS_8triangleEEENS_9vector_2dERKT_RKT0_
FNA:100,0,_ZN13splashkit_lib37_calculate_object_collision_directionINS_9rectangleEPNS_12_sprite_dataEEENS_9vector_2dERKT_RKT0_
FNA:100,0,_ZN13splashkit_lib37_calculate_object_collision_directionIPNS_12_sprite_dataENS_4quadEEENS_9vector_2dERKT_RKT0_
FNA:100,0,_ZN13splashkit_lib37_calculate_object_collision_directionIPNS_12_sprite_dataENS_6circleEEENS_9vector_2dERKT_RKT0_
FNA:100,0,_ZN13splashkit_lib37_calculate_object_collision_directionIPNS_12_sprite_dataENS_8triangleEEENS_9vector_2dERKT_RKT0_
FNA:100,0,_ZN13splashkit_lib37_calculate_object_collision_directionIPNS_12_sprite_dataENS_9rectangleEEENS_9vector_2dERKT_RKT0_
FNA:100,0,_ZN13splashkit_lib37_calculate_object_collision_directionIPNS_12_sprite_dataES2_EENS_9vector_2dERKT_RKT0_
FNL:101,570,578
FNA:101,0,_ZN13splashkit_lib30_resolve_object_AABB_collisionINS_4quadEEEvRT_RKNS_9rectangleERKNS_9vector_2dE
FNA:101,0,_ZN13splashkit_lib30_resolve_object_AABB_collisionINS_6circleEEEvRT_RKNS_9rectangleERKNS_9vector_2dE
FNA:101,0,_ZN13splashkit_lib30_resolve_object_AABB_collisionINS_8triangleEEEvRT_RKNS_9rectangleERKNS_9vector_2dE
FNA:101,0,_ZN13splashkit_lib30_resolve_object_AABB_collisionINS_9rectangleEEEvRT_RKS1_RKNS_9vector_2dE
FNA:101,0,_ZN13splashkit_lib30_resolve_object_AABB_collisionIPNS_12_sprite_dataEEEvRT_RKNS_9rectangleERKNS_9vector_2dE
FNL:102,581,601
FNA:102,0,_ZN13splashkit_lib25_resolve_object_collisionINS_4quadENS_6circleEEEbRT_RKT0_RKNS_9vector_2dE
FNA:102,0,_ZN13splashkit_lib25_resolve_object_collisionINS_4quadENS_8triangleEEEbRT_RKT0_RKNS_9vector_2dE
FNA:102,0,_ZN13splashkit_lib25_resolve_object_collisionINS_4quadENS_9rectangleEEEbRT_RKT0_RKNS_9vector_2dE
FNA:102,0,_ZN13splashkit_lib25_resolve_object_collisionINS_4quadEPNS_12_sprite_dataEEEbRT_RKT0_RKNS_9vector_2dE
FNA:102,0,_ZN13splashkit_lib25_resolve_object_collisionINS_4quadES1_EEbRT_RKT0_RKNS_9vector_2dE
FNA:102,0,_ZN13splashkit_lib25_resolve_object_collisionINS_6circleENS_4quadEEEbRT_RKT0_RKNS_9vector_2dE
FNA:102,0,_ZN13splashkit_lib25_resolve_object_collisionINS_6circleENS_8triangleEEEbRT_RKT0_RKNS_9vector_2dE
FNA:102,0,_ZN13splashkit_lib25_resolve_object_collisionINS_6circleENS_9rectangleEEEbRT_RKT0_RKNS_9vector_2dE
FNA:102,0,_ZN13splashkit_lib25_resolve_object_collisionINS_6circleEPNS_12_sprite_dataEEEbRT_RKT0_RKNS_9vector_2dE
FNA:102,0,_ZN13splashkit_lib25_resolve_object_collisionINS_6circleES1_EEbRT_RKT0_RKNS_9vector_2dE
FNA:102,0,_ZN13splashkit_lib25_resolve_object_collisionINS_8triangleENS_4quadEEEbRT_RKT0_RKNS_9vector_2dE
FNA:102,0,_ZN13splashkit_lib25_resolve_object_collisionINS_8triangleENS_6circleEEEbRT_RKT0_RKNS_9vector_2dE
FNA:102,0,_ZN13splashkit_lib25_resolve_object_collisionINS_8triangleENS_9rectangleEEEbRT_RKT0_RKNS_9vector_2dE
FNA:102,0,_ZN13splashkit_lib25_resolve_object_collisionINS_8triangleEPNS_12_sprite_dataEEEbRT_RKT0_RKNS_9vector_2dE
FNA:102,0,_ZN13splashkit_lib25_resolve_object_collisionINS_8triangleES1_EEbRT_RKT0_RKNS_9vector_2dE
FNA:102,0,_ZN13splashkit_lib25_resolve_object_collisionINS_9rectangleENS_4quadEEEbRT_RKT0_RKNS_9vector_2dE
FNA:102,0,_ZN13splashkit_lib25_resolve_object_collisionINS_9rectangleENS_6circleEEEbRT_RKT0_RKNS_9vector_2dE
FNA:102,0,_ZN13splashkit_lib25_resolve_object_collisionINS_9rectangleENS_8triangleEEEbRT_RKT0_RKNS_9vector_2dE
FNA:102,0,_ZN13splashkit_lib25_resolve_object_collisionINS_9rectangleEPNS_12_sprite_dataEEEbRT_RKT0_RKNS_9vector_2dE
FNA:102,0,_ZN13splashkit_lib25_resolve_object_collisionINS_9rectangleES1_EEbRT_RKT0_RKNS_9vector_2dE
FNA:102,0,_ZN13splashkit_lib25_resolve_object_collisionIPNS_12_sprite_dataENS_4quadEEEbRT_RKT0_RKNS_9vector_2dE
FNA:102,0,_ZN13splashkit_lib25_resolve_object_collisionIPNS_12_sprite_dataENS_6circleEEEbRT_RKT0_RKNS_9vector_2dE
FNA:102,0,_ZN13splashkit_lib25_resolve_object_collisionIPNS_12_sprite_dataENS_8triangleEEEbRT_RKT0_RKNS_9vector_2dE
FNA:102,0,_ZN13splashkit_lib25_resolve_object_collisionIPNS_12_sprite_dataENS_9rectangleEEEbRT_RKT0_RKNS_9vector_2dE
FNA:102,0,_ZN13splashkit_lib25_resolve_object_collisionIPNS_12_sprite_dataES2_EEbRT_RKT0_RKNS_9vector_2dE
FNL:103,603,612
FNA:103,12,_ZN13splashkit_lib22bitmap_point_collisionEPNS_12_bitmap_dataEiRKNS_9matrix_2dERKNS_8point_2dE
FNL:104,615,624
FNA:104,12,_ZZN13splashkit_lib22bitmap_point_collisionEPNS_12_bitmap_dataEiRKNS_9matrix_2dERKNS_8point_2dEENK3$_1clEiiii
FNL:105,626,628
FNA:105,12,_ZN13splashkit_lib22bitmap_point_collisionEPNS_12_bitmap_dataERKNS_9matrix_2dERKNS_8point_2dE
FNL:106,631,633
FNA:106,0,_ZN13splashkit_lib22bitmap_point_collisionEPNS_12_bitmap_dataERKNS_8point_2dES4_
FNL:107,636,638
FNA:107,0,_ZN13splashkit_lib22bitmap_point_collisionEPNS_12_bitmap_dataEdddd
FNL:108,641,643
FNA:108,0,_ZN13splashkit_lib22bitmap_point_collisionEPNS_12_bitmap_dataEiRKNS_8point_2dES4_
FNL:109,646,648
FNA:109,0,_ZN13splashkit_lib22bitmap_point_collisionEPNS_12_bitmap_dataEidddd
FNL:110,651,664
FNA:110,12,_ZN13splashkit_lib26bitmap_rectangle_collisionEPNS_12_bitmap_dataEiRKNS_9matrix_2dERKNS_9rectangleE
FNL:111,666,668
FNA:111,8,_ZZN13splashkit_lib26bitmap_rectangle_collisionEPNS_12_bitmap_dataEiRKNS_9matrix_2dERKNS_9rectangleEENK3$_2clEiiii
FNL:112,670,672
FNA:112,0,_ZN13splashkit_lib26bitmap_rectangle_collisionEPNS_12_bitmap_dataEiRKNS_8point_2dERKNS_9rectangleE
FNL:113,675,677
FNA:113,0,_ZN13splashkit_lib26bitmap_rectangle_collisionEPNS_12_bitmap_dataERKNS_8point_2dERKNS_9rectangleE
FNL:114,680,682
FNA:114,0,_ZN13splashkit_lib26bitmap_rectangle_collisionEPNS_12_bitmap_dataEddRKNS_9rectangleE
FNL:115,685,687
FNA:115,0,_ZN13splashkit_lib26bitmap_rectangle_collisionEPNS_12_bitmap_dataEiddRKNS_9rectangleE
FNL:116,690,704
FNA:116,0,_ZN13splashkit_lib23bitmap_circle_collisionEPNS_12_bitmap_dataEiRKNS_9matrix_2dERKNS_6circleE
FNL:117,706,708
FNA:117,0,_ZZN13splashkit_lib23bitmap_circle_collisionEPNS_12_bitmap_dataEiRKNS_9matrix_2dERKNS_6circleEENK3$_3clEiiii
FNL:118,710,712
FNA:118,0,_ZN13splashkit_lib23bitmap_circle_collisionEPNS_12_bitmap_dataEiRKNS_8point_2dERKNS_6circleE
FNL:119,715,717
FNA:119,0,_ZN13splashkit_lib23bitmap_circle_collisionEPNS_12_bitmap_dataERKNS_8point_2dERKNS_6circleE
FNL:120,720,722
FNA:120,0,_ZN13splashkit_lib23bitmap_circle_collisionEPNS_12_bitmap_dataEddRKNS_6circleE
FNL:121,725,727
FNA:121,0,_ZN13splashkit_lib23bitmap_circle_collisionEPNS_12_bitmap_dataEiddRKNS_6circleE
FNL:122,730,741
FNA:122,0,_ZN13splashkit_lib21bitmap_quad_collisionEPNS_12_bitmap_dataEiRKNS_9matrix_2dERKNS_4quadE
FNL:123,743,745
FNA:123,0,_ZZN13splashkit_lib21bitmap_quad_collisionEPNS_12_bitmap_dataEiRKNS_9matrix_2dERKNS_4quadEENK3$_4clEiiii
FNL:124,747,767
FNA:124,0,_ZN13splashkit_lib20bitmap_ray_collisionEPNS_12_bitmap_dataEiRKNS_9matrix_2dERKNS_8point_2dERKNS_9vector_2dE
FNL:125,769,771
FNA:125,0,_ZN13splashkit_lib20bitmap_ray_collisionEPNS_12_bitmap_dataEiRKNS_8point_2dES4_RKNS_9vector_2dE
FNL:126,774,776
FNA:126,0,_ZN13splashkit_lib20bitmap_ray_collisionEPNS_12_bitmap_dataEiddRKNS_8point_2dERKNS_9vector_2dE
FNL:127,779,781
FNA:127,0,_ZN13splashkit_lib20bitmap_ray_collisionEPNS_12_bitmap_dataEddRKNS_8point_2dERKNS_9vector_2dE
FNL:128,784,786
FNA:128,0,_ZN13splashkit_lib20bitmap_ray_collisionEPNS_12_bitmap_dataERKNS_8point_2dES4_RKNS_9vector_2dE
FNL:129,789,801
FNA:129,0,_ZN13splashkit_lib25bitmap_triangle_collisionEPNS_12_bitmap_dataEiRKNS_9matrix_2dERKNS_8triangleE
FNL:130,804,806
FNA:130,0,_ZZN13splashkit_lib25bitmap_triangle_collisionEPNS_12_bitmap_dataEiRKNS_9matrix_2dERKNS_8triangleEENK3$_5clEiiii
FNL:131,808,810
FNA:131,0,_ZN13splashkit_lib25bitmap_triangle_collisionEPNS_12_bitmap_dataEiRKNS_8point_2dERKNS_8triangleE
FNL:132,813,815
FNA:132,0,_ZN13splashkit_lib25bitmap_triangle_collisionEPNS_12_bitmap_dataEiddRKNS_8triangleE
FNL:133,818,820
FNA:133,0,_ZN13splashkit_lib25bitmap_triangle_collisionEPNS_12_bitmap_dataEddRKNS_8triangleE
FNL:134,823,825
FNA:134,0,_ZN13splashkit_lib25bitmap_triangle_collisionEPNS_12_bitmap_dataERKNS_8point_2dERKNS_8triangleE
FNL:135,828,830
FNA:135,0,_ZN13splashkit_lib21bitmap_quad_collisionEPNS_12_bitmap_dataEiRKNS_8point_2dERKNS_4quadE
FNL:136,833,835
FNA:136,0,_ZN13splashkit_lib21bitmap_quad_collisionEPNS_12_bitmap_dataEiddRKNS_4quadE
FNL:137,838,840
FNA:137,0,_ZN13splashkit_lib21bitmap_quad_collisionEPNS_12_bitmap_dataEddRKNS_4quadE
FNL:138,843,845
FNA:138,0,_ZN13splashkit_lib21bitmap_quad_collisionEPNS_12_bitmap_dataERKNS_8point_2dERKNS_4quadE
FNL:139,848,866
FNA:139,4,_ZN13splashkit_lib23sprite_bitmap_collisionEPNS_12_sprite_dataEPNS_12_bitmap_dataEidd
FNL:140,868,870
FNA:140,0,_ZN13splashkit_lib23sprite_bitmap_collisionEPNS_12_sprite_dataEPNS_12_bitmap_dataEiRKNS_8point_2dE
FNL:141,873,875
FNA:141,0,_ZN13splashkit_lib23sprite_bitmap_collisionEPNS_12_sprite_dataEPNS_12_bitmap_dataEdd
FNL:142,878,892
FNA:142,16,_ZN13splashkit_lib22sprite_point_collisionEPNS_12_sprite_dataERKNS_8point_2dE
FNL:143,894,902
FNA:143,14,_ZN13splashkit_lib26sprite_rectangle_collisionEPNS_12_sprite_dataERKNS_9rectangleE
FNL:144,904,906
FNA:144,0,_ZN13splashkit_lib20sprite_ray_collisionEPNS_12_sprite_dataERKNS_8point_2dERKNS_9vector_2dE
FNL:145,909,917
FNA:145,0,_ZN13splashkit_lib23sprite_circle_collisionEPNS_12_sprite_dataERKNS_6circleE
FNL:146,919,927
FNA:146,0,_ZN13splashkit_lib25sprite_triangle_collisionEPNS_12_sprite_dataERKNS_8triangleE
FNL:147,929,937
FNA:147,0,_ZN13splashkit_lib21sprite_quad_collisionEPNS_12_sprite_dataERKNS_4quadE
FNL:148,939,959
FNA:148,12,_ZN13splashkit_lib16sprite_collisionEPNS_12_sprite_dataES1_
FNL:149,961,973
FNA:149,0,_ZN13splashkit_lib16bitmap_collisionEPNS_12_bitmap_dataEiRKNS_9matrix_2dES1_iS4_
FNL:150,975,977
FNA:150,0,_ZN13splashkit_lib16bitmap_collisionEPNS_12_bitmap_dataEiRKNS_8point_2dES1_iS4_
FNL:151,980,982
FNA:151,0,_ZN13splashkit_lib16bitmap_collisionEPNS_12_bitmap_dataEiddS1_idd
FNL:152,985,987
FNA:152,0,_ZN13splashkit_lib16bitmap_collisionEPNS_12_bitmap_dataERKNS_8point_2dES1_S4_
FNL:153,990,992
FNA:153,0,_ZN13splashkit_lib16bitmap_collisionEPNS_12_bitmap_dataEddS1_dd
FNL:154,995,997
FNA:154,0,_ZN13splashkit_lib29calculate_collision_directionEPNS_12_sprite_dataES1_
FNF:155
FNH:13
DA:24,4
DA:25,4
DA:26,4
DA:27,4
DA:28,4
DA:29,4
DA:30,4
DA:31,4
DA:32,4
DA:39,28
DA:52,28
DA:54,26
DA:55,26
DA:56,26
DA:58,26
DA:59,26
DA:63,26
DA:64,26
DA:67,2
DA:68,2
DA:69,2
DA:71,2
DA:72,2
DA:76,2
DA:83,28
DA:89,28
DA:90,28
DA:96,3128
DA:98,3124
DA:101,2669634
DA:107,2666534
DA:108,2666534
DA:111,2666534
DA:113,7144
DA:115,20
DA:117,7124
DA:120,2666510
DA:121,2666510
DA:124,3100
DA:125,3100
DA:128,4
DA:129,24
DA:131,4
DA:133,8
DA:134,4
DA:135,7128
DA:152,7124
DA:154,0
DA:156,0
DA:158,0
DA:161,0
DA:163,0
DA:166,0
DA:168,0
DA:171,0
DA:173,0
DA:176,0
DA:178,0
DA:181,0
DA:183,0
DA:186,0
DA:188,0
DA:191,0
DA:193,0
DA:196,0
DA:198,0
DA:201,0
DA:203,0
DA:206,0
DA:208,0
DA:211,0
DA:213,0
DA:216,0
DA:218,0
DA:221,0
DA:223,0
DA:226,0
DA:228,0
DA:231,0
DA:233,0
DA:236,0
DA:238,0
DA:241,0
DA:243,0
DA:246,0
DA:248,0
DA:251,0
DA:253,0
DA:256,0
DA:258,0
DA:261,0
DA:263,0
DA:266,0
DA:268,0
DA:271,0
DA:273,0
DA:276,0
DA:278,0
DA:281,0
DA:283,0
DA:286,0
DA:288,0
DA:289,0
DA:290,0
DA:292,0
DA:294,0
DA:295,0
DA:296,0
DA:298,0
DA:300,0
DA:301,0
DA:302,0
DA:304,0
DA:306,0
DA:307,0
DA:308,0
DA:309,0
DA:310,0
DA:311,0
DA:312,0
DA:314,0
DA:316,0
DA:317,0
DA:318,0
DA:319,0
DA:320,0
DA:321,0
DA:322,0
DA:323,0
DA:324,0
DA:326,0
DA:328,0
DA:331,0
DA:333,0
DA:336,0
DA:338,0
DA:341,0
DA:343,0
DA:346,0
DA:348,0
DA:352,0
DA:354,0
DA:358,0
DA:360,0
DA:364,0
DA:366,0
DA:369,0
DA:371,0
DA:373,0
DA:375,0
DA:376,0
DA:378,0
DA:380,0
DA:382,0
DA:384,0
DA:385,0
DA:387,0
DA:390,0
DA:391,0
DA:392,0
DA:393,0
DA:395,0
DA:396,0
DA:398,0
DA:399,0
DA:401,0
DA:402,0
DA:404,0
DA:406,0
DA:408,0
DA:409,0
DA:411,0
DA:413,0
DA:414,0
DA:415,0
DA:416,0
DA:417,0
DA:419,0
DA:420,0
DA:421,0
DA:422,0
DA:424,0
DA:426,0
DA:428,0
DA:430,0
DA:432,0
DA:434,0
DA:436,0
DA:438,0
DA:440,0
DA:442,0
DA:444,0
DA:447,0
DA:449,0
DA:452,0
DA:454,0
DA:456,0
DA:458,0
DA:460,0
DA:462,0
DA:464,0
DA:466,0
DA:468,0
DA:472,0
DA:473,0
DA:476,0
DA:478,0
DA:480,0
DA:483,0
DA:484,0
DA:485,0
DA:488,0
DA:491,0
DA:493,0
DA:496,0
DA:498,0
DA:501,0
DA:503,0
DA:504,0
DA:506,0
DA:508,0
DA:509,0
DA:510,0
DA:512,0
DA:513,0
DA:515,0
DA:516,0
DA:523,0
DA:526,0
DA:527,0
DA:529,0
DA:530,0
DA:531,0
DA:532,0
DA:534,0
DA:538,0
DA:539,0
DA:541,0
DA:542,0
DA:545,0
DA:548,0
DA:550,0
DA:551,0
DA:553,0
DA:555,0
DA:556,0
DA:559,0
DA:561,0
DA:563,0
DA:566,0
DA:567,0
DA:570,0
DA:574,0
DA:575,0
DA:577,0
DA:578,0
DA:581,0
DA:583,0
DA:584,0
DA:586,0
DA:589,0
DA:591,0
DA:593,0
DA:594,0
DA:597,0
DA:600,0
DA:601,0
DA:603,12
DA:605,12
DA:607,0
DA:610,12
DA:612,0
DA:615,24
DA:623,12
DA:624,12
DA:626,12
DA:628,12
DA:631,0
DA:633,0
DA:636,0
DA:638,0
DA:641,0
DA:643,0
DA:646,0
DA:648,0
DA:651,12
DA:653,12
DA:655,0
DA:660,12
DA:661,12
DA:663,12
DA:664,0
DA:666,20
DA:667,8
DA:668,12
DA:670,0
DA:672,0
DA:675,0
DA:677,0
DA:680,0
DA:682,0
DA:685,0
DA:687,0
DA:690,0
DA:692,0
DA:694,0
DA:699,0
DA:700,0
DA:701,0
DA:703,0
DA:704,0
DA:706,0
DA:707,0
DA:708,0
DA:710,0
DA:712,0
DA:715,0
DA:717,0
DA:720,0
DA:722,0
DA:725,0
DA:727,0
DA:730,0
DA:732,0
DA:734,0
DA:737,0
DA:738,0
DA:740,0
DA:741,0
DA:743,0
DA:744,0
DA:745,0
DA:747,0
DA:749,0
DA:750,0
DA:752,0
DA:755,0
DA:756,0
DA:757,0
DA:759,0
DA:762,0
DA:763,0
DA:765,0
DA:766,0
DA:767,0
DA:769,0
DA:771,0
DA:774,0
DA:776,0
DA:779,0
DA:781,0
DA:784,0
DA:786,0
DA:789,0
DA:791,0
DA:793,0
DA:796,0
DA:797,0
DA:799,0
DA:801,0
DA:804,0
DA:805,0
DA:806,0
DA:808,0
DA:810,0
DA:813,0
DA:815,0
DA:818,0
DA:820,0
DA:823,0
DA:825,0
DA:828,0
DA:830,0
DA:833,0
DA:835,0
DA:838,0
DA:840,0
DA:843,0
DA:845,0
DA:848,4
DA:850,4
DA:852,2
DA:855,2
DA:857,0
DA:860,2
DA:861,2
DA:862,2
DA:863,2
DA:864,2
DA:865,2
DA:866,4
DA:868,0
DA:870,0
DA:873,0
DA:875,0
DA:878,16
DA:880,16
DA:882,4
DA:884,12
DA:886,0
DA:890,12
DA:892,16
DA:894,14
DA:896,14
DA:898,2
DA:901,12
DA:902,14
DA:904,0
DA:906,0
DA:909,0
DA:911,0
DA:913,0
DA:916,0
DA:917,0
DA:919,0
DA:921,0
DA:923,0
DA:926,0
DA:927,0
DA:929,0
DA:931,0
DA:933,0
DA:936,0
DA:937,0
DA:939,12
DA:941,12
DA:943,4
DA:946,8
DA:948,6
DA:951,2
DA:953,0
DA:956,2
DA:957,2
DA:958,2
DA:959,12
DA:961,0
DA:963,0
DA:964,0
DA:966,0
DA:968,0
DA:971,0
DA:972,0
DA:973,0
DA:975,0
DA:977,0
DA:980,0
DA:982,0
DA:985,0
DA:987,0
DA:990,0
DA:992,0
DA:995,0
DA:997,0
DA:1000,0
DA:1002,0
DA:1005,0
DA:1007,0
DA:1010,0
DA:1012,0
DA:1015,0
DA:1017,0
DA:1020,0
DA:1022,0
DA:1025,0
DA:1027,0
DA:1030,0
DA:1032,0
DA:1035,0
DA:1037,0
DA:1040,0
DA:1042,0
DA:1045,0
DA:1047,0
DA:1050,0
DA:1052,0
DA:1055,0
DA:1057,0
DA:1060,0
DA:1062,0
DA:1065,0
DA:1067,0
DA:1070,0
DA:1072,0
DA:1075,0
DA:1077,0
DA:1080,0
DA:1082,0
DA:1085,0
DA:1087,0
DA:1090,0
DA:1092,0
DA:1095,0
DA:1097,0
DA:1100,0
DA:1102,0
DA:1105,0
DA:1107,0
DA:1110,0
DA:1112,0
DA:1115,0
DA:1117,0
DA:1120,0
DA:1122,0
DA:1125,0
DA:1127,0
DA:1130,0
DA:1132,0
DA:1135,0
DA:1137,0
DA:1140,0
DA:1142,0
DA:1145,0
DA:1147,0
DA:1150,0
DA:1152,0
DA:1155,0
DA:1157,0
DA:1160,0
DA:1162,0
DA:1165,0
DA:1167,0
DA:1170,0
DA:1172,0
DA:1175,0
DA:1177,0
DA:1180,0
DA:1182,0
DA:1185,0
DA:1187,0
DA:1190,0
DA:1192,0
DA:1195,0
DA:1197,0
DA:1200,0
DA:1202,0
DA:1205,0
DA:1207,0
DA:1210,0
DA:1212,0
DA:1215,0
DA:1217,0
DA:1220,0
DA:1222,0
DA:1225,0
DA:1227,0
DA:1230,0
DA:1232,0
DA:1235,0
DA:1237,0
DA:1240,0
DA:1242,0
LF:551
LH:95
end_of_record
TN:
SF:/Users/trungpham/Documents/splashkit-core/coresdk/src/coresdk/color.cpp
FNL:0,133,170
FNA:0,0,_ZN13splashkit_lib12hsb_value_ofENS_5colorERdS1_S1_
FNL:1,172,183
FNA:1,8,_ZN13splashkit_lib15color_to_stringENS_5colorE
FNL:2,185,213
FNA:2,8,_ZN13splashkit_lib15string_to_colorENSt3__112basic_stringIcNS0_11char_traitsIcEENS0_9allocatorIcEEEE
FNL:3,215,217
FNA:3,16,_ZN13splashkit_lib8alpha_ofENS_5colorE
FNL:4,220,222
FNA:4,18,_ZN13splashkit_lib6red_ofENS_5colorE
FNL:5,225,227
FNA:5,18,_ZN13splashkit_lib8green_ofENS_5colorE
FNL:6,230,232
FNA:6,18,_ZN13splashkit_lib7blue_ofENS_5colorE
FNL:7,236,240
FNA:7,0,_ZN13splashkit_lib6hue_ofENS_5colorE
FNL:8,244,248
FNA:8,0,_ZN13splashkit_lib13saturation_ofENS_5colorE
FNL:9,251,255
FNA:9,0,_ZN13splashkit_lib13brightness_ofENS_5colorE
FNL:10,258,260
FNA:10,0,_ZN13splashkit_lib10color_grayEv
FNL:11,26,28
FNA:11,0,_ZN13splashkit_lib12random_colorEv
FNL:12,263,265
FNA:12,0,_ZN13splashkit_lib16color_light_greyEv
FNL:13,268,270
FNA:13,0,_ZN13splashkit_lib17color_transparentEv
FNL:14,273,275
FNA:14,0,_ZN13splashkit_lib16color_alice_blueEv
FNL:15,278,280
FNA:15,0,_ZN13splashkit_lib19color_antique_whiteEv
FNL:16,283,285
FNA:16,0,_ZN13splashkit_lib10color_aquaEv
FNL:17,288,290
FNA:17,0,_ZN13splashkit_lib16color_aquamarineEv
FNL:18,293,295
FNA:18,0,_ZN13splashkit_lib11color_azureEv
FNL:19,298,300
FNA:19,0,_ZN13splashkit_lib11color_beigeEv
FNL:20,303,305
FNA:20,0,_ZN13splashkit_lib12color_bisqueEv
FNL:21,308,310
FNA:21,4,_ZN13splashkit_lib11color_blackEv
FNL:22,31,33
FNA:22,0,_ZN13splashkit_lib16random_rgb_colorEi
FNL:23,313,315
FNA:23,0,_ZN13splashkit_lib21color_blanched_almondEv
FNL:24,318,320
FNA:24,0,_ZN13splashkit_lib10color_blueEv
FNL:25,323,325
FNA:25,0,_ZN13splashkit_lib17color_blue_violetEv
FNL:26,328,330
FNA:26,0,_ZN13splashkit_lib11color_brownEv
FNL:27,333,335
FNA:27,0,_ZN13splashkit_lib16color_burly_woodEv
FNL:28,338,340
FNA:28,0,_ZN13splashkit_lib16color_cadet_blueEv
FNL:29,343,345
FNA:29,0,_ZN13splashkit_lib16color_chartreuseEv
FNL:30,348,350
FNA:30,0,_ZN13splashkit_lib15color_chocolateEv
FNL:31,353,355
FNA:31,0,_ZN13splashkit_lib11color_coralEv
FNL:32,358,360
FNA:32,0,_ZN13splashkit_lib21color_cornflower_blueEv
FNL:33,36,38
FNA:33,10,_ZN13splashkit_lib10rgba_colorEiiii
FNL:34,363,365
FNA:34,0,_ZN13splashkit_lib14color_cornsilkEv
FNL:35,368,370
FNA:35,0,_ZN13splashkit_lib13color_crimsonEv
FNL:36,373,375
FNA:36,0,_ZN13splashkit_lib10color_cyanEv
FNL:37,378,380
FNA:37,0,_ZN13splashkit_lib15color_dark_blueEv
FNL:38,383,385
FNA:38,0,_ZN13splashkit_lib15color_dark_cyanEv
FNL:39,388,390
FNA:39,0,_ZN13splashkit_lib20color_dark_goldenrodEv
FNL:40,393,395
FNA:40,0,_ZN13splashkit_lib15color_dark_grayEv
FNL:41,398,400
FNA:41,0,_ZN13splashkit_lib16color_dark_greenEv
FNL:42,403,405
FNA:42,0,_ZN13splashkit_lib16color_dark_khakiEv
FNL:43,408,410
FNA:43,0,_ZN13splashkit_lib18color_dark_magentaEv
FNL:44,413,415
FNA:44,0,_ZN13splashkit_lib22color_dark_olive_greenEv
FNL:45,418,420
FNA:45,0,_ZN13splashkit_lib17color_dark_orangeEv
FNL:46,423,425
FNA:46,0,_ZN13splashkit_lib17color_dark_orchidEv
FNL:47,428,430
FNA:47,0,_ZN13splashkit_lib14color_dark_redEv
FNL:48,433,435
FNA:48,0,_ZN13splashkit_lib17color_dark_salmonEv
FNL:49,438,440
FNA:49,0,_ZN13splashkit_lib20color_dark_sea_greenEv
FNL:50,44,52
FNA:50,22,_ZN13splashkit_lib10rgba_colorEdddd
FNL:51,443,445
FNA:51,0,_ZN13splashkit_lib21color_dark_slate_blueEv
FNL:52,448,450
FNA:52,0,_ZN13splashkit_lib21color_dark_slate_grayEv
FNL:53,453,455
FNA:53,0,_ZN13splashkit_lib20color_dark_turquoiseEv
FNL:54,458,460
FNA:54,0,_ZN13splashkit_lib17color_dark_violetEv
FNL:55,463,465
FNA:55,0,_ZN13splashkit_lib15color_deep_pinkEv
FNL:56,468,470
FNA:56,0,_ZN13splashkit_lib19color_deep_sky_blueEv
FNL:57,473,475
FNA:57,0,_ZN13splashkit_lib14color_dim_grayEv
FNL:58,478,480
FNA:58,0,_ZN13splashkit_lib17color_dodger_blueEv
FNL:59,483,485
FNA:59,0,_ZN13splashkit_lib15color_firebrickEv
FNL:60,488,490
FNA:60,0,_ZN13splashkit_lib18color_floral_whiteEv
FNL:61,493,495
FNA:61,0,_ZN13splashkit_lib18color_forest_greenEv
FNL:62,498,500
FNA:62,0,_ZN13splashkit_lib13color_fuchsiaEv
FNL:63,503,505
FNA:63,0,_ZN13splashkit_lib15color_gainsboroEv
FNL:64,508,510
FNA:64,0,_ZN13splashkit_lib17color_ghost_whiteEv
FNL:65,513,515
FNA:65,0,_ZN13splashkit_lib10color_goldEv
FNL:66,518,520
FNA:66,0,_ZN13splashkit_lib15color_goldenrodEv
FNL:67,523,525
FNA:67,0,_ZN13splashkit_lib10color_greyEv
FNL:68,528,530
FNA:68,2,_ZN13splashkit_lib11color_greenEv
FNL:69,533,535
FNA:69,2,_ZN13splashkit_lib18color_bright_greenEv
FNL:70,538,540
FNA:70,0,_ZN13splashkit_lib18color_green_yellowEv
FNL:71,543,545
FNA:71,0,_ZN13splashkit_lib14color_honeydewEv
FNL:72,548,550
FNA:72,0,_ZN13splashkit_lib14color_hot_pinkEv
FNL:73,553,555
FNA:73,0,_ZN13splashkit_lib16color_indian_redEv
FNL:74,558,560
FNA:74,0,_ZN13splashkit_lib12color_indigoEv
FNL:75,563,565
FNA:75,0,_ZN13splashkit_lib11color_ivoryEv
FNL:76,568,570
FNA:76,0,_ZN13splashkit_lib11color_khakiEv
FNL:77,573,575
FNA:77,0,_ZN13splashkit_lib14color_lavenderEv
FNL:78,578,580
FNA:78,0,_ZN13splashkit_lib20color_lavender_blushEv
FNL:79,58,60
FNA:79,2,_ZN13splashkit_lib9rgb_colorEiii
FNL:80,583,585
FNA:80,0,_ZN13splashkit_lib16color_lawn_greenEv
FNL:81,588,590
FNA:81,0,_ZN13splashkit_lib19color_lemon_chiffonEv
FNL:82,593,595
FNA:82,0,_ZN13splashkit_lib16color_light_blueEv
FNL:83,598,600
FNA:83,0,_ZN13splashkit_lib17color_light_coralEv
FNL:84,603,605
FNA:84,0,_ZN13splashkit_lib16color_light_cyanEv
FNL:85,608,610
FNA:85,0,_ZN13splashkit_lib28color_light_goldenrod_yellowEv
FNL:86,613,615
FNA:86,0,_ZN13splashkit_lib17color_light_greenEv
FNL:87,618,620
FNA:87,0,_ZN13splashkit_lib16color_light_grayEv
FNL:88,623,625
FNA:88,0,_ZN13splashkit_lib16color_light_pinkEv
FNL:89,628,630
FNA:89,0,_ZN13splashkit_lib18color_light_salmonEv
FNL:90,633,635
FNA:90,0,_ZN13splashkit_lib21color_light_sea_greenEv
FNL:91,638,640
FNA:91,0,_ZN13splashkit_lib20color_light_sky_blueEv
FNL:92,643,645
FNA:92,0,_ZN13splashkit_lib22color_light_slate_grayEv
FNL:93,648,650
FNA:93,0,_ZN13splashkit_lib22color_light_steel_blueEv
FNL:94,653,655
FNA:94,0,_ZN13splashkit_lib18color_light_yellowEv
FNL:95,658,660
FNA:95,0,_ZN13splashkit_lib10color_limeEv
FNL:96,66,68
FNA:96,0,_ZN13splashkit_lib9rgb_colorEddd
FNL:97,663,665
FNA:97,0,_ZN13splashkit_lib16color_lime_greenEv
FNL:98,668,670
FNA:98,0,_ZN13splashkit_lib11color_linenEv
FNL:99,673,675
FNA:99,0,_ZN13splashkit_lib13color_magentaEv
FNL:100,678,680
FNA:100,0,_ZN13splashkit_lib12color_maroonEv
FNL:101,683,685
FNA:101,0,_ZN13splashkit_lib23color_medium_aquamarineEv
FNL:102,688,690
FNA:102,0,_ZN13splashkit_lib17color_medium_blueEv
FNL:103,693,695
FNA:103,0,_ZN13splashkit_lib19color_medium_orchidEv
FNL:104,698,700
FNA:104,0,_ZN13splashkit_lib19color_medium_purpleEv
FNL:105,703,705
FNA:105,0,_ZN13splashkit_lib22color_medium_sea_greenEv
FNL:106,708,710
FNA:106,0,_ZN13splashkit_lib23color_medium_slate_blueEv
FNL:107,713,715
FNA:107,0,_ZN13splashkit_lib25color_medium_spring_greenEv
FNL:108,718,720
FNA:108,0,_ZN13splashkit_lib22color_medium_turquoiseEv
FNL:109,723,725
FNA:109,0,_ZN13splashkit_lib23color_medium_violet_redEv
FNL:110,728,730
FNA:110,0,_ZN13splashkit_lib19color_midnight_blueEv
FNL:111,733,735
FNA:111,0,_ZN13splashkit_lib16color_mint_creamEv
FNL:112,738,740
FNA:112,0,_ZN13splashkit_lib16color_misty_roseEv
FNL:113,743,745
FNA:113,0,_ZN13splashkit_lib14color_moccasinEv
FNL:114,748,750
FNA:114,0,_ZN13splashkit_lib18color_navajo_whiteEv
FNL:115,753,755
FNA:115,0,_ZN13splashkit_lib10color_navyEv
FNL:116,758,760
FNA:116,0,_ZN13splashkit_lib14color_old_laceEv
FNL:117,76,131
FNA:117,0,_ZN13splashkit_lib9hsb_colorEddd
FNL:118,763,765
FNA:118,0,_ZN13splashkit_lib11color_oliveEv
FNL:119,768,770
FNA:119,0,_ZN13splashkit_lib16color_olive_drabEv
FNL:120,773,775
FNA:120,0,_ZN13splashkit_lib12color_orangeEv
FNL:121,778,780
FNA:121,0,_ZN13splashkit_lib16color_orange_redEv
FNL:122,783,785
FNA:122,0,_ZN13splashkit_lib12color_orchidEv
FNL:123,788,790
FNA:123,0,_ZN13splashkit_lib20color_pale_goldenrodEv
FNL:124,793,795
FNA:124,0,_ZN13splashkit_lib16color_pale_greenEv
FNL:125,798,800
FNA:125,0,_ZN13splashkit_lib20color_pale_turquoiseEv
FNL:126,803,805
FNA:126,0,_ZN13splashkit_lib21color_pale_violet_redEv
FNL:127,808,810
FNA:127,0,_ZN13splashkit_lib17color_papaya_whipEv
FNL:128,813,815
FNA:128,0,_ZN13splashkit_lib16color_peach_puffEv
FNL:129,818,820
FNA:129,0,_ZN13splashkit_lib10color_peruEv
FNL:130,823,825
FNA:130,0,_ZN13splashkit_lib10color_pinkEv
FNL:131,828,830
FNA:131,0,_ZN13splashkit_lib10color_plumEv
FNL:132,833,835
FNA:132,0,_ZN13splashkit_lib17color_powder_blueEv
FNL:133,838,840
FNA:133,0,_ZN13splashkit_lib12color_purpleEv
FNL:134,843,845
FNA:134,0,_ZN13splashkit_lib9color_redEv
FNL:135,848,850
FNA:135,0,_ZN13splashkit_lib16color_rosy_brownEv
FNL:136,853,855
FNA:136,0,_ZN13splashkit_lib16color_royal_blueEv
FNL:137,858,860
FNA:137,0,_ZN13splashkit_lib18color_saddle_brownEv
FNL:138,863,865
FNA:138,0,_ZN13splashkit_lib12color_salmonEv
FNL:139,868,870
FNA:139,0,_ZN13splashkit_lib17color_sandy_brownEv
FNL:140,873,875
FNA:140,0,_ZN13splashkit_lib15color_sea_greenEv
FNL:141,878,880
FNA:141,0,_ZN13splashkit_lib15color_sea_shellEv
FNL:142,883,885
FNA:142,0,_ZN13splashkit_lib12color_siennaEv
FNL:143,888,890
FNA:143,0,_ZN13splashkit_lib12color_silverEv
FNL:144,893,895
FNA:144,0,_ZN13splashkit_lib14color_sky_blueEv
FNL:145,898,900
FNA:145,0,_ZN13splashkit_lib16color_slate_blueEv
FNL:146,903,905
FNA:146,0,_ZN13splashkit_lib16color_slate_grayEv
FNL:147,908,910
FNA:147,0,_ZN13splashkit_lib10color_snowEv
FNL:148,913,915
FNA:148,0,_ZN13splashkit_lib18color_spring_greenEv
FNL:149,918,920
FNA:149,0,_ZN13splashkit_lib16color_steel_blueEv
FNL:150,923,925
FNA:150,0,_ZN13splashkit_lib9color_tanEv
FNL:151,928,930
FNA:151,0,_ZN13splashkit_lib10color_tealEv
FNL:152,933,935
FNA:152,0,_ZN13splashkit_lib13color_thistleEv
FNL:153,938,940
FNA:153,0,_ZN13splashkit_lib12color_tomatoEv
FNL:154,943,945
FNA:154,0,_ZN13splashkit_lib15color_turquoiseEv
FNL:155,948,950
FNA:155,0,_ZN13splashkit_lib12color_violetEv
FNL:156,953,955
FNA:156,0,_ZN13splashkit_lib11color_wheatEv
FNL:157,958,960
FNA:157,2,_ZN13splashkit_lib11color_whiteEv
FNL:158,963,965
FNA:158,0,_ZN13splashkit_lib17color_white_smokeEv
FNL:159,968,970
FNA:159,0,_ZN13splashkit_lib12color_yellowEv
FNL:160,973,975
FNA:160,0,_ZN13splashkit_lib18color_yellow_greenEv
FNL:161,978,980
FNA:161,0,_ZN13splashkit_lib19color_swinburne_redEv
FNF:162
FNH:13
DA:26,0
DA:28,0
DA:31,0
DA:33,0
DA:36,10
DA:38,10
DA:44,22
DA:47,22
DA:48,22
DA:49,22
DA:50,22
DA:52,22
DA:58,2
DA:60,2
DA:66,0
DA:68,0
DA:76,0
DA:81,0
DA:82,0
DA:84,0
DA:85,0
DA:87,0
DA:89,0
DA:90,0
DA:91,0
DA:92,0
DA:93,0
DA:94,0
DA:96,0
DA:97,0
DA:98,0
DA:99,0
DA:100,0
DA:101,0
DA:103,0
DA:104,0
DA:105,0
DA:106,0
DA:107,0
DA:108,0
DA:110,0
DA:111,0
DA:112,0
DA:113,0
DA:114,0
DA:115,0
DA:117,0
DA:118,0
DA:119,0
DA:120,0
DA:121,0
DA:124,0
DA:125,0
DA:126,0
DA:127,0
DA:130,0
DA:131,0
DA:133,0
DA:138,0
DA:140,0
DA:141,0
DA:142,0
DA:144,0
DA:145,0
DA:146,0
DA:148,0
DA:149,0
DA:150,0
DA:152,0
DA:154,0
DA:156,0
DA:157,0
DA:158,0
DA:159,0
DA:160,0
DA:163,0
DA:166,0
DA:167,0
DA:169,0
DA:170,0
DA:172,8
DA:174,8
DA:176,8
DA:177,8
DA:178,8
DA:179,8
DA:180,8
DA:182,8
DA:183,8
DA:185,8
DA:187,8
DA:189,2
DA:190,2
DA:193,6
DA:196,6
DA:198,6
DA:199,6
DA:200,6
DA:202,6
DA:203,6
DA:204,6
DA:206,6
DA:207,6
DA:209,0
DA:212,6
DA:213,8
DA:215,16
DA:217,16
DA:220,18
DA:222,18
DA:225,18
DA:227,18
DA:230,18
DA:232,18
DA:236,0
DA:239,0
DA:240,0
DA:244,0
DA:247,0
DA:248,0
DA:251,0
DA:254,0
DA:255,0
DA:258,0
DA:260,0
DA:263,0
DA:265,0
DA:268,0
DA:270,0
DA:273,0
DA:275,0
DA:278,0
DA:280,0
DA:283,0
DA:285,0
DA:288,0
DA:290,0
DA:293,0
DA:295,0
DA:298,0
DA:300,0
DA:303,0
DA:305,0
DA:308,4
DA:310,4
DA:313,0
DA:315,0
DA:318,0
DA:320,0
DA:323,0
DA:325,0
DA:328,0
DA:330,0
DA:333,0
DA:335,0
DA:338,0
DA:340,0
DA:343,0
DA:345,0
DA:348,0
DA:350,0
DA:353,0
DA:355,0
DA:358,0
DA:360,0
DA:363,0
DA:365,0
DA:368,0
DA:370,0
DA:373,0
DA:375,0
DA:378,0
DA:380,0
DA:383,0
DA:385,0
DA:388,0
DA:390,0
DA:393,0
DA:395,0
DA:398,0
DA:400,0
DA:403,0
DA:405,0
DA:408,0
DA:410,0
DA:413,0
DA:415,0
DA:418,0
DA:420,0
DA:423,0
DA:425,0
DA:428,0
DA:430,0
DA:433,0
DA:435,0
DA:438,0
DA:440,0
DA:443,0
DA:445,0
DA:448,0
DA:450,0
DA:453,0
DA:455,0
DA:458,0
DA:460,0
DA:463,0
DA:465,0
DA:468,0
DA:470,0
DA:473,0
DA:475,0
DA:478,0
DA:480,0
DA:483,0
DA:485,0
DA:488,0
DA:490,0
DA:493,0
DA:495,0
DA:498,0
DA:500,0
DA:503,0
DA:505,0
DA:508,0
DA:510,0
DA:513,0
DA:515,0
DA:518,0
DA:520,0
DA:523,0
DA:525,0
DA:528,2
DA:530,2
DA:533,2
DA:535,2
DA:538,0
DA:540,0
DA:543,0
DA:545,0
DA:548,0
DA:550,0
DA:553,0
DA:555,0
DA:558,0
DA:560,0
DA:563,0
DA:565,0
DA:568,0
DA:570,0
DA:573,0
DA:575,0
DA:578,0
DA:580,0
DA:583,0
DA:585,0
DA:588,0
DA:590,0
DA:593,0
DA:595,0
DA:598,0
DA:600,0
DA:603,0
DA:605,0
DA:608,0
DA:610,0
DA:613,0
DA:615,0
DA:618,0
DA:620,0
DA:623,0
DA:625,0
DA:628,0
DA:630,0
DA:633,0
DA:635,0
DA:638,0
DA:640,0
DA:643,0
DA:645,0
DA:648,0
DA:650,0
DA:653,0
DA:655,0
DA:658,0
DA:660,0
DA:663,0
DA:665,0
DA:668,0
DA:670,0
DA:673,0
DA:675,0
DA:678,0
DA:680,0
DA:683,0
DA:685,0
DA:688,0
DA:690,0
DA:693,0
DA:695,0
DA:698,0
DA:700,0
DA:703,0
DA:705,0
DA:708,0
DA:710,0
DA:713,0
DA:715,0
DA:718,0
DA:720,0
DA:723,0
DA:725,0
DA:728,0
DA:730,0
DA:733,0
DA:735,0
DA:738,0
DA:740,0
DA:743,0
DA:745,0
DA:748,0
DA:750,0
DA:753,0
DA:755,0
DA:758,0
DA:760,0
DA:763,0
DA:765,0
DA:768,0
DA:770,0
DA:773,0
DA:775,0
DA:778,0
DA:780,0
DA:783,0
DA:785,0
DA:788,0
DA:790,0
DA:793,0
DA:795,0
DA:798,0
DA:800,0
DA:803,0
DA:805,0
DA:808,0
DA:810,0
DA:813,0
DA:815,0
DA:818,0
DA:820,0
DA:823,0
DA:825,0
DA:828,0
DA:830,0
DA:833,0
DA:835,0
DA:838,0
DA:840,0
DA:843,0
DA:845,0
DA:848,0
DA:850,0
DA:853,0
DA:855,0
DA:858,0
DA:860,0
DA:863,0
DA:865,0
DA:868,0
DA:870,0
DA:873,0
DA:875,0
DA:878,0
DA:880,0
DA:883,0
DA:885,0
DA:888,0
DA:890,0
DA:893,0
DA:895,0
DA:898,0
DA:900,0
DA:903,0
DA:905,0
DA:908,0
DA:910,0
DA:913,0
DA:915,0
DA:918,0
DA:920,0
DA:923,0
DA:925,0
DA:928,0
DA:930,0
DA:933,0
DA:935,0
DA:938,0
DA:940,0
DA:943,0
DA:945,0
DA:948,0
DA:950,0
DA:953,0
DA:955,0
DA:958,2
DA:960,2
DA:963,0
DA:965,0
DA:968,0
DA:970,0
DA:973,0
DA:975,0
DA:978,0
DA:980,0
LF:413
LH:51
end_of_record
TN:
SF:/Users/trungpham/Documents/splashkit-core/coresdk/src/coresdk/drawing_options.cpp
FNL:0,101,104
FNA:0,0,_ZN13splashkit_lib13option_flip_xENS_15drawing_optionsE
FNL:1,107,109
FNA:1,0,_ZN13splashkit_lib13option_flip_yEv
FNL:2,112,115
FNA:2,0,_ZN13splashkit_lib13option_flip_yENS_15drawing_optionsE
FNL:3,118,120
FNA:3,0,_ZN13splashkit_lib14option_flip_xyEv
FNL:4,123,127
FNA:4,0,_ZN13splashkit_lib14option_flip_xyENS_15drawing_optionsE
FNL:5,130,132
FNA:5,0,_ZN13splashkit_lib15option_part_bmpEdddd
FNL:6,135,137
FNA:6,0,_ZN13splashkit_lib15option_part_bmpEddddNS_15drawing_optionsE
FNL:7,140,142
FNA:7,0,_ZN13splashkit_lib15option_part_bmpENS_9rectangleE
FNL:8,145,149
FNA:8,0,_ZN13splashkit_lib15option_part_bmpENS_9rectangleENS_15drawing_optionsE
FNL:9,152,154
FNA:9,0,_ZN13splashkit_lib15option_to_worldEv
FNL:10,157,160
FNA:10,0,_ZN13splashkit_lib15option_to_worldENS_15drawing_optionsE
FNL:11,163,165
FNA:11,0,_ZN13splashkit_lib16option_to_screenEv
FNL:12,168,171
FNA:12,0,_ZN13splashkit_lib16option_to_screenENS_15drawing_optionsE
FNL:13,17,36
FNA:13,0,_ZN13splashkit_lib15option_defaultsEv
FNL:14,174,176
FNA:14,0,_ZN13splashkit_lib17option_line_widthEi
FNL:15,179,182
FNA:15,0,_ZN13splashkit_lib17option_line_widthEiNS_15drawing_optionsE
FNL:16,185,187
FNA:16,0,_ZN13splashkit_lib21option_with_animationEPNS_15_animation_dataE
FNL:17,190,193
FNA:17,0,_ZN13splashkit_lib21option_with_animationEPNS_15_animation_dataENS_15drawing_optionsE
FNL:18,196,199
FNA:18,0,_ZN13splashkit_lib23option_with_bitmap_cellEiNS_15drawing_optionsE
FNL:19,202,204
FNA:19,0,_ZN13splashkit_lib23option_with_bitmap_cellEi
FNL:20,39,41
FNA:20,0,_ZN13splashkit_lib14option_draw_toEPNS_12_bitmap_dataE
FNL:21,44,47
FNA:21,0,_ZN13splashkit_lib14option_draw_toEPNS_12_bitmap_dataENS_15drawing_optionsE
FNL:22,50,52
FNA:22,0,_ZN13splashkit_lib14option_draw_toEPNS_12_window_dataE
FNL:23,55,58
FNA:23,0,_ZN13splashkit_lib14option_draw_toEPNS_12_window_dataENS_15drawing_optionsE
FNL:24,61,63
FNA:24,0,_ZN13splashkit_lib16option_scale_bmpEdd
FNL:25,66,70
FNA:25,0,_ZN13splashkit_lib16option_scale_bmpEddNS_15drawing_optionsE
FNL:26,73,75
FNA:26,0,_ZN13splashkit_lib17option_rotate_bmpEddd
FNL:27,78,83
FNA:27,0,_ZN13splashkit_lib17option_rotate_bmpEdddNS_15drawing_optionsE
FNL:28,86,88
FNA:28,0,_ZN13splashkit_lib17option_rotate_bmpEdNS_15drawing_optionsE
FNL:29,91,93
FNA:29,0,_ZN13splashkit_lib17option_rotate_bmpEd
FNL:30,96,98
FNA:30,0,_ZN13splashkit_lib13option_flip_xEv
FNF:31
FNH:0
DA:17,0
DA:21,0
DA:22,0
DA:23,0
DA:24,0
DA:25,0
DA:26,0
DA:27,0
DA:28,0
DA:29,0
DA:30,0
DA:31,0
DA:32,0
DA:33,0
DA:34,0
DA:36,0
DA:39,0
DA:41,0
DA:44,0
DA:46,0
DA:47,0
DA:50,0
DA:52,0
DA:55,0
DA:57,0
DA:58,0
DA:61,0
DA:63,0
DA:66,0
DA:68,0
DA:69,0
DA:70,0
DA:73,0
DA:75,0
DA:78,0
DA:80,0
DA:81,0
DA:82,0
DA:83,0
DA:86,0
DA:88,0
DA:91,0
DA:93,0
DA:96,0
DA:98,0
DA:101,0
DA:103,0
DA:104,0
DA:107,0
DA:109,0
DA:112,0
DA:114,0
DA:115,0
DA:118,0
DA:120,0
DA:123,0
DA:125,0
DA:126,0
DA:127,0
DA:130,0
DA:132,0
DA:135,0
DA:137,0
DA:140,0
DA:142,0
DA:145,0
DA:147,0
DA:148,0
DA:149,0
DA:152,0
DA:154,0
DA:157,0
DA:159,0
DA:160,0
DA:163,0
DA:165,0
DA:168,0
DA:170,0
DA:171,0
DA:174,0
DA:176,0
DA:179,0
DA:181,0
DA:182,0
DA:185,0
DA:187,0
DA:190,0
DA:192,0
DA:193,0
DA:196,0
DA:198,0
DA:199,0
DA:202,0
DA:204,0
LF:94
LH:0
end_of_record
TN:
SF:/Users/trungpham/Documents/splashkit-core/coresdk/src/coresdk/geometry.cpp
FNL:0,15,17
FNA:0,26,_ZN13splashkit_lib6cosineEf
FNL:1,20,22
FNA:1,26,_ZN13splashkit_lib4sineEf
FNL:2,25,27
FNA:2,18,_ZN13splashkit_lib7tangentEf
FNF:3
FNH:3
DA:15,26
DA:17,26
DA:20,26
DA:22,26
DA:25,18
DA:27,18
LF:6
LH:6
end_of_record
TN:
SF:/Users/trungpham/Documents/splashkit-core/coresdk/src/coresdk/graphics.cpp
FNL:0,108,111
FNA:0,0,_ZN13splashkit_lib15take_screenshotERKNSt3__112basic_stringIcNS0_11char_traitsIcEENS0_9allocatorIcEEEE
FNL:1,113,122
FNA:1,0,_ZN13splashkit_lib15take_screenshotEPNS_12_window_dataERKNSt3__112basic_stringIcNS2_11char_traitsIcEENS2_9allocatorIcEEEE
FNL:2,124,133
FNA:2,0,_ZN13splashkit_lib11save_bitmapEPNS_12_bitmap_dataERKNSt3__112basic_stringIcNS2_11char_traitsIcEENS2_9allocatorIcEEEE
FNL:3,135,146
FNA:3,0,_ZN13splashkit_lib18number_of_displaysEv
FNL:4,148,162
FNA:4,0,_ZN13splashkit_lib15display_detailsEj
FNL:5,164,173
FNA:5,0,_ZN13splashkit_lib12display_nameEPNS_10sk_displayE
FNL:6,175,184
FNA:6,0,_ZN13splashkit_lib13display_widthEPNS_10sk_displayE
FNL:7,186,195
FNA:7,0,_ZN13splashkit_lib14display_heightEPNS_10sk_displayE
FNL:8,197,206
FNA:8,0,_ZN13splashkit_lib9display_xEPNS_10sk_displayE
FNL:9,208,217
FNA:9,0,_ZN13splashkit_lib9display_yEPNS_10sk_displayE
FNL:10,31,37
FNA:10,0,_ZN13splashkit_lib14refresh_screenEv
FNL:11,39,56
FNA:11,0,_ZN13splashkit_lib20delay_for_target_fpsEj
FNL:12,58,62
FNA:12,0,_ZN13splashkit_lib14refresh_screenEj
FNL:13,64,67
FNA:13,0,_ZN13splashkit_lib12clear_screenENS_5colorE
FNL:14,69,72
FNA:14,0,_ZN13splashkit_lib12clear_screenEv
FNL:15,74,76
FNA:15,2,_ZN13splashkit_lib12screen_widthEv
FNL:16,79,81
FNA:16,2,_ZN13splashkit_lib13screen_heightEv
FNL:17,84,106
FNA:17,0,_ZN13splashkit_lib13_save_surfaceERNS_10image_dataENSt3__112basic_stringIcNS2_11char_traitsIcEENS2_9allocatorIcEEEE
FNF:18
FNH:2
DA:31,0
DA:33,0
DA:35,0
DA:37,0
DA:39,0
DA:41,0
DA:42,0
DA:43,0
DA:47,0
DA:49,0
DA:50,0
DA:51,0
DA:52,0
DA:55,0
DA:56,0
DA:58,0
DA:60,0
DA:61,0
DA:62,0
DA:64,0
DA:66,0
DA:67,0
DA:69,0
DA:71,0
DA:72,0
DA:74,2
DA:76,2
DA:79,2
DA:81,2
DA:84,0
DA:86,0
DA:88,0
DA:90,0
DA:91,0
DA:93,0
DA:95,0
DA:97,0
DA:99,0
DA:100,0
DA:103,0
DA:105,0
DA:106,0
DA:108,0
DA:110,0
DA:111,0
DA:113,0
DA:115,0
DA:117,0
DA:118,0
DA:121,0
DA:122,0
DA:124,0
DA:126,0
DA:128,0
DA:129,0
DA:132,0
DA:133,0
DA:135,0
DA:137,0
DA:139,0
DA:141,0
DA:142,0
DA:145,0
DA:146,0
DA:148,0
DA:150,0
DA:152,0
DA:154,0
DA:155,0
DA:158,0
DA:159,0
DA:161,0
DA:162,0
DA:164,0
DA:166,0
DA:168,0
DA:169,0
DA:172,0
DA:173,0
DA:175,0
DA:177,0
DA:179,0
DA:180,0
DA:183,0
DA:184,0
DA:186,0
DA:188,0
DA:190,0
DA:191,0
DA:194,0
DA:195,0
DA:197,0
DA:199,0
DA:201,0
DA:202,0
DA:205,0
DA:206,0
DA:208,0
DA:210,0
DA:212,0
DA:213,0
DA:216,0
DA:217,0
LF:103
LH:4
end_of_record
TN:
SF:/Users/trungpham/Documents/splashkit-core/coresdk/src/coresdk/images.cpp
FNL:0,0,25
FNA:0,4,__cxx_global_var_init
FNL:1,135,164
FNA:1,0,_ZN13splashkit_lib13create_bitmapENSt3__112basic_stringIcNS0_11char_traitsIcEENS0_9allocatorIcEEEEii
FNL:2,166,183
FNA:2,24,_ZN13splashkit_lib11free_bitmapEPNS_12_bitmap_dataE
FNL:3,185,188
FNA:3,2,_ZN13splashkit_lib16free_all_bitmapsEv
FNL:4,190,195
FNA:4,6,_ZN13splashkit_lib15bitmap_filenameEPNS_12_bitmap_dataE
FNL:5,197,202
FNA:5,6,_ZN13splashkit_lib11bitmap_nameEPNS_12_bitmap_dataE
FNL:6,204,213
FNA:6,0,_ZN13splashkit_lib12clear_bitmapEPNS_12_bitmap_dataENS_5colorE
FNL:7,215,218
FNA:7,0,_ZN13splashkit_lib12clear_bitmapENSt3__112basic_stringIcNS0_11char_traitsIcEENS0_9allocatorIcEEEENS_5colorE
FNL:8,221,224
FNA:8,0,_ZN13splashkit_lib11draw_bitmapEPNS_12_bitmap_dataEdd
FNL:9,226,293
FNA:9,0,_ZN13splashkit_lib11draw_bitmapEPNS_12_bitmap_dataEddNS_15drawing_optionsE
FNL:10,27,60
FNA:10,26,_ZN13splashkit_lib20setup_collision_maskEPNS_12_bitmap_dataE
FNL:11,295,298
FNA:11,0,_ZN13splashkit_lib21draw_bitmap_on_windowEPNS_12_window_dataEPNS_12_bitmap_dataEdd
FNL:12,300,303
FNA:12,0,_ZN13splashkit_lib21draw_bitmap_on_windowEPNS_12_window_dataEPNS_12_bitmap_dataEddNS_15drawing_optionsE
FNL:13,305,308
FNA:13,0,_ZN13splashkit_lib21draw_bitmap_on_bitmapEPNS_12_bitmap_dataES1_dd
FNL:14,310,313
FNA:14,0,_ZN13splashkit_lib21draw_bitmap_on_bitmapEPNS_12_bitmap_dataES1_ddNS_15drawing_optionsE
FNL:15,315,318
FNA:15,0,_ZN13splashkit_lib11draw_bitmapENSt3__112basic_stringIcNS0_11char_traitsIcEENS0_9allocatorIcEEEEdd
FNL:16,320,323
FNA:16,0,_ZN13splashkit_lib11draw_bitmapENSt3__112basic_stringIcNS0_11char_traitsIcEENS0_9allocatorIcEEEEddNS_15drawing_optionsE
FNL:17,325,334
FNA:17,90,_ZN13splashkit_lib21bitmap_cell_rectangleEPNS_12_bitmap_dataERKNS_8point_2dE
FNL:18,336,338
FNA:18,24,_ZN13splashkit_lib21bitmap_cell_rectangleEPNS_12_bitmap_dataE
FNL:19,341,348
FNA:19,14268,_ZN13splashkit_lib18bitmap_cell_offsetEPNS_12_bitmap_dataEi
FNL:20,350,366
FNA:20,0,_ZN13splashkit_lib24bitmap_rectangle_of_cellEPNS_12_bitmap_dataEi
FNL:21,369,371
FNA:21,2,_ZN13splashkit_lib25bitmap_bounding_rectangleEPNS_12_bitmap_dataE
FNL:22,374,380
FNA:22,2,_ZN13splashkit_lib25bitmap_bounding_rectangleEPNS_12_bitmap_dataEdd
FNL:23,383,392
FNA:23,32,_ZN13splashkit_lib18bitmap_cell_circleEPNS_12_bitmap_dataENS_8point_2dEd
FNL:24,394,396
FNA:24,2,_ZN13splashkit_lib18bitmap_cell_circleEPNS_12_bitmap_dataENS_8point_2dE
FNL:25,399,401
FNA:25,2,_ZN13splashkit_lib18bitmap_cell_circleEPNS_12_bitmap_dataEdd
FNL:26,404,412
FNA:26,2,_ZN13splashkit_lib22bitmap_bounding_circleEPNS_12_bitmap_dataERKNS_8point_2dE
FNL:27,414,422
FNA:27,0,_ZN13splashkit_lib19bitmap_cell_columnsEPNS_12_bitmap_dataE
FNL:28,424,432
FNA:28,0,_ZN13splashkit_lib16bitmap_cell_rowsEPNS_12_bitmap_dataE
FNL:29,434,447
FNA:29,0,_ZN13splashkit_lib23bitmap_set_cell_detailsEPNS_12_bitmap_dataEiiiii
FNL:30,449,458
FNA:30,14432,_ZN13splashkit_lib12bitmap_widthEPNS_12_bitmap_dataE
FNL:31,460,463
FNA:31,0,_ZN13splashkit_lib12bitmap_widthENSt3__112basic_stringIcNS0_11char_traitsIcEENS0_9allocatorIcEEEE
FNL:32,465,474
FNA:32,14432,_ZN13splashkit_lib13bitmap_heightEPNS_12_bitmap_dataE
FNL:33,476,479
FNA:33,0,_ZN13splashkit_lib13bitmap_heightENSt3__112basic_stringIcNS0_11char_traitsIcEENS0_9allocatorIcEEEE
FNL:34,481,483
FNA:34,2,_ZN13splashkit_lib13bitmap_centerEPNS_12_bitmap_dataE
FNL:35,486,495
FNA:35,118,_ZN13splashkit_lib17bitmap_cell_widthEPNS_12_bitmap_dataE
FNL:36,497,506
FNA:36,114,_ZN13splashkit_lib18bitmap_cell_heightEPNS_12_bitmap_dataE
FNL:37,508,510
FNA:37,0,_ZN13splashkit_lib18bitmap_cell_centerEPNS_12_bitmap_dataE
FNL:38,514,522
FNA:38,12,_ZN13splashkit_lib17bitmap_cell_countEPNS_12_bitmap_dataE
FNL:39,524,532
FNA:39,14268,_ZN13splashkit_lib20pixel_drawn_at_pointEPNS_12_bitmap_dataEdd
FNL:40,534,537
FNA:40,14268,_ZN13splashkit_lib20pixel_drawn_at_pointEPNS_12_bitmap_dataEidd
FNL:41,540,542
FNA:41,0,_ZN13splashkit_lib20pixel_drawn_at_pointEPNS_12_bitmap_dataERKNS_8point_2dE
FNL:42,545,547
FNA:42,0,_ZN13splashkit_lib20pixel_drawn_at_pointEPNS_12_bitmap_dataEiRKNS_8point_2dE
FNL:43,62,64
FNA:43,26,_ZN13splashkit_lib12bitmap_validEPNS_12_bitmap_dataE
FNL:44,67,69
FNA:44,64,_ZN13splashkit_lib10has_bitmapENSt3__112basic_stringIcNS0_11char_traitsIcEENS0_9allocatorIcEEEE
FNL:45,72,84
FNA:45,8,_ZN13splashkit_lib12bitmap_namedENSt3__112basic_stringIcNS0_11char_traitsIcEENS0_9allocatorIcEEEE
FNL:46,87,133
FNA:46,28,_ZN13splashkit_lib11load_bitmapENSt3__112basic_stringIcNS0_11char_traitsIcEENS0_9allocatorIcEEEES6_
FNF:47
FNH:27
DA:25,4
DA:27,26
DA:29,26
DA:31,0
DA:32,0
DA:39,26
DA:40,26
DA:42,26
DA:44,26
DA:45,26
DA:48,4376
DA:50,1983300
DA:52,1978950
DA:54,1978950
DA:56,4350
DA:59,26
DA:60,26
DA:62,26
DA:64,26
DA:67,64
DA:69,64
DA:72,8
DA:74,8
DA:75,6
DA:78,2
DA:80,2
DA:81,0
DA:82,2
DA:83,2
DA:84,8
DA:87,28
DA:89,28
DA:92,28
DA:94,28
DA:96,28
DA:98,28
DA:100,28
DA:102,2
DA:103,2
DA:105,26
DA:107,26
DA:108,26
DA:110,0
DA:111,0
DA:114,26
DA:115,26
DA:117,26
DA:118,26
DA:119,26
DA:120,26
DA:121,26
DA:122,26
DA:123,26
DA:125,26
DA:126,26
DA:128,26
DA:130,26
DA:132,26
DA:133,28
DA:135,0
DA:137,0
DA:139,0
DA:140,0
DA:142,0
DA:143,0
DA:144,0
DA:145,0
DA:146,0
DA:147,0
DA:149,0
DA:151,0
DA:152,0
DA:153,0
DA:155,0
DA:156,0
DA:159,0
DA:161,0
DA:163,0
DA:164,0
DA:166,24
DA:168,24
DA:170,24
DA:172,24
DA:173,24
DA:174,24
DA:175,24
DA:176,24
DA:177,24
DA:178,24
DA:181,0
DA:183,24
DA:185,2
DA:187,6
DA:188,2
DA:190,6
DA:192,6
DA:194,6
DA:195,6
DA:197,6
DA:199,6
DA:201,6
DA:202,6
DA:204,0
DA:206,0
DA:208,0
DA:209,0
DA:212,0
DA:213,0
DA:215,0
DA:217,0
DA:218,0
DA:221,0
DA:223,0
DA:224,0
DA:226,0
DA:228,0
DA:230,0
DA:231,0
DA:241,0
DA:244,0
DA:245,0
DA:247,0
DA:249,0
DA:250,0
DA:251,0
DA:252,0
DA:253,0
DA:254,0
DA:255,0
DA:257,0
DA:258,0
DA:259,0
DA:260,0
DA:261,0
DA:264,0
DA:265,0
DA:266,0
DA:267,0
DA:271,0
DA:272,0
DA:273,0
DA:274,0
DA:275,0
DA:276,0
DA:278,0
DA:281,0
DA:282,0
DA:283,0
DA:284,0
DA:285,0
DA:286,0
DA:287,0
DA:289,0
DA:291,0
DA:292,0
DA:293,0
DA:295,0
DA:297,0
DA:298,0
DA:300,0
DA:302,0
DA:303,0
DA:305,0
DA:307,0
DA:308,0
DA:310,0
DA:312,0
DA:313,0
DA:315,0
DA:317,0
DA:318,0
DA:320,0
DA:322,0
DA:323,0
DA:325,90
DA:327,90
DA:329,0
DA:330,0
DA:333,90
DA:334,90
DA:336,24
DA:338,24
DA:341,14268
DA:343,14268
DA:344,0
DA:345,14268
DA:346,14268
DA:347,14268
DA:348,14268
DA:350,0
DA:354,0
DA:355,0
DA:356,0
DA:357,0
DA:360,0
DA:361,0
DA:362,0
DA:363,0
DA:366,0
DA:369,2
DA:371,2
DA:374,2
DA:376,2
DA:377,0
DA:379,2
DA:380,2
DA:383,32
DA:385,32
DA:387,0
DA:388,0
DA:391,32
DA:392,32
DA:394,2
DA:396,2
DA:399,2
DA:401,2
DA:404,2
DA:406,2
DA:408,0
DA:411,2
DA:412,2
DA:414,0
DA:416,0
DA:418,0
DA:421,0
DA:422,0
DA:424,0
DA:426,0
DA:428,0
DA:431,0
DA:432,0
DA:434,0
DA:436,0
DA:438,0
DA:439,0
DA:442,0
DA:443,0
DA:444,0
DA:445,0
DA:446,0
DA:447,0
DA:449,14432
DA:451,14432
DA:453,2
DA:454,2
DA:457,14430
DA:458,14432
DA:460,0
DA:462,0
DA:463,0
DA:465,14432
DA:467,14432
DA:469,2
DA:470,2
DA:473,14430
DA:474,14432
DA:476,0
DA:478,0
DA:479,0
DA:481,2
DA:483,2
DA:486,118
DA:488,118
DA:490,0
DA:491,0
DA:494,118
DA:495,118
DA:497,114
DA:499,114
DA:501,0
DA:502,0
DA:505,114
DA:506,114
DA:508,0
DA:510,0
DA:514,12
DA:516,12
DA:518,0
DA:521,12
DA:522,12
DA:524,14268
DA:526,14268
DA:527,14268
DA:529,14268
DA:531,14268
DA:532,14268
DA:534,14268
DA:536,14268
DA:537,14268
DA:540,0
DA:542,0
DA:545,0
DA:547,0
LF:293
LH:141
end_of_record
TN:
SF:/Users/trungpham/Documents/splashkit-core/coresdk/src/coresdk/input.cpp
FNL:0,25,28
FNA:0,0,_ZN13splashkit_lib4quitEv
FNL:1,30,33
FNA:1,0,_ZN13splashkit_lib20handle_window_resizeEPvii
FNL:2,35,38
FNA:2,0,_ZN13splashkit_lib18handle_window_moveEPvii
FNL:3,40,43
FNA:3,0,_ZN13splashkit_lib24handle_window_gain_focusEPv
FNL:4,55,78
FNA:4,0,_ZN13splashkit_lib14process_eventsEv
FNL:5,80,82
FNA:5,0,_ZN13splashkit_lib14quit_requestedEv
FNL:6,85,88
FNA:6,0,_ZN13splashkit_lib10reset_quitEv
FNF:7
FNH:0
DA:25,0
DA:27,0
DA:28,0
DA:30,0
DA:33,0
DA:35,0
DA:38,0
DA:40,0
DA:43,0
DA:55,0
DA:58,0
DA:60,0
DA:61,0
DA:62,0
DA:63,0
DA:64,0
DA:65,0
DA:66,0
DA:67,0
DA:68,0
DA:69,0
DA:70,0
DA:71,0
DA:74,0
DA:75,0
DA:77,0
DA:78,0
DA:80,0
DA:82,0
DA:85,0
DA:87,0
DA:88,0
LF:32
LH:0
end_of_record
TN:
SF:/Users/trungpham/Documents/splashkit-core/coresdk/src/coresdk/json.cpp
FNL:0,0,20
FNA:0,4,__cxx_global_var_init
FNL:1,112,133
FNA:1,2,_ZN13splashkit_lib12json_to_fileEPNS_7sk_jsonERKNSt3__112basic_stringIcNS2_11char_traitsIcEENS2_9allocatorIcEEEE
FNL:2,135,138
FNA:2,62,_ZN13splashkit_lib15json_set_stringEPNS_7sk_jsonENSt3__112basic_stringIcNS2_11char_traitsIcEENS2_9allocatorIcEEEES8_
FNL:3,140,143
FNA:3,0,_ZN13splashkit_lib15json_set_numberEPNS_7sk_jsonENSt3__112basic_stringIcNS2_11char_traitsIcEENS2_9allocatorIcEEEEf
FNL:4,145,148
FNA:4,0,_ZN13splashkit_lib15json_set_numberEPNS_7sk_jsonENSt3__112basic_stringIcNS2_11char_traitsIcEENS2_9allocatorIcEEEEd
FNL:5,150,153
FNA:5,12,_ZN13splashkit_lib15json_set_numberEPNS_7sk_jsonENSt3__112basic_stringIcNS2_11char_traitsIcEENS2_9allocatorIcEEEEi
FNL:6,155,158
FNA:6,12,_ZN13splashkit_lib13json_set_boolEPNS_7sk_jsonENSt3__112basic_stringIcNS2_11char_traitsIcEENS2_9allocatorIcEEEEb
FNL:7,160,163
FNA:7,12,_ZN13splashkit_lib15json_set_objectEPNS_7sk_jsonENSt3__112basic_stringIcNS2_11char_traitsIcEENS2_9allocatorIcEEEES1_
FNL:8,165,168
FNA:8,12,_ZN13splashkit_lib14json_set_arrayEPNS_7sk_jsonENSt3__112basic_stringIcNS2_11char_traitsIcEENS2_9allocatorIcEEEENS2_6vectorIS8_NS6_IS8_EEEE
FNL:9,170,173
FNA:9,0,_ZN13splashkit_lib14json_set_arrayEPNS_7sk_jsonENSt3__112basic_stringIcNS2_11char_traitsIcEENS2_9allocatorIcEEEENS2_6vectorIdNS6_IdEEEE
FNL:10,175,178
FNA:10,0,_ZN13splashkit_lib14json_set_arrayEPNS_7sk_jsonENSt3__112basic_stringIcNS2_11char_traitsIcEENS2_9allocatorIcEEEENS2_6vectorIbNS6_IbEEEE
FNL:11,180,197
FNA:11,0,_ZN13splashkit_lib14json_set_arrayEPNS_7sk_jsonENSt3__112basic_stringIcNS2_11char_traitsIcEENS2_9allocatorIcEEEENS2_6vectorIS1_NS6_IS1_EEEE
FNL:12,199,202
FNA:12,18,_ZN13splashkit_lib16json_read_stringEPNS_7sk_jsonENSt3__112basic_stringIcNS2_11char_traitsIcEENS2_9allocatorIcEEEE
FNL:13,204,207
FNA:13,0,_ZN13splashkit_lib16json_read_numberEPNS_7sk_jsonENSt3__112basic_stringIcNS2_11char_traitsIcEENS2_9allocatorIcEEEE
FNL:14,209,212
FNA:14,2,_ZN13splashkit_lib23json_read_number_as_intEPNS_7sk_jsonENSt3__112basic_stringIcNS2_11char_traitsIcEENS2_9allocatorIcEEEE
FNL:15,214,217
FNA:15,0,_ZN13splashkit_lib26json_read_number_as_doubleEPNS_7sk_jsonENSt3__112basic_stringIcNS2_11char_traitsIcEENS2_9allocatorIcEEEE
FNL:16,219,222
FNA:16,2,_ZN13splashkit_lib14json_read_boolEPNS_7sk_jsonENSt3__112basic_stringIcNS2_11char_traitsIcEENS2_9allocatorIcEEEE
FNL:17,22,30
FNA:17,34,_ZN13splashkit_lib11create_jsonEv
FNL:18,224,231
FNA:18,4,_ZN13splashkit_lib16json_read_objectEPNS_7sk_jsonENSt3__112basic_stringIcNS2_11char_traitsIcEENS2_9allocatorIcEEEE
FNL:19,233,236
FNA:19,0,_ZN13splashkit_lib15json_read_arrayEPNS_7sk_jsonENSt3__112basic_stringIcNS2_11char_traitsIcEENS2_9allocatorIcEEEERNS2_6vectorIdNS6_IdEEEE
FNL:20,238,241
FNA:20,0,_ZN13splashkit_lib15json_read_arrayEPNS_7sk_jsonENSt3__112basic_stringIcNS2_11char_traitsIcEENS2_9allocatorIcEEEERNS2_6vectorIbNS6_IbEEEE
FNL:21,243,246
FNA:21,2,_ZN13splashkit_lib15json_read_arrayEPNS_7sk_jsonENSt3__112basic_stringIcNS2_11char_traitsIcEENS2_9allocatorIcEEEERNS2_6vectorIS8_NS6_IS8_EEEE
FNL:22,248,261
FNA:22,0,_ZN13splashkit_lib15json_read_arrayEPNS_7sk_jsonENSt3__112basic_stringIcNS2_11char_traitsIcEENS2_9allocatorIcEEEERNS2_6vectorIS1_NS6_IS1_EEEE
FNL:23,263,272
FNA:23,10,_ZN13splashkit_lib12json_has_keyEPNS_7sk_jsonENSt3__112basic_stringIcNS2_11char_traitsIcEENS2_9allocatorIcEEEE
FNL:24,274,283
FNA:24,2,_ZN13splashkit_lib15json_count_keysEPNS_7sk_jsonE
FNL:25,285,291
FNA:25,2,_ZN13splashkit_lib15json_from_colorENS_5colorE
FNL:26,293,303
FNA:26,2,_ZN13splashkit_lib13json_to_colorEPNS_7sk_jsonE
FNL:27,33,46
FNA:27,4,_ZN13splashkit_lib11create_jsonENSt3__112basic_stringIcNS0_11char_traitsIcEENS0_9allocatorIcEEEE
FNL:28,48,71
FNA:28,12,_ZN13splashkit_lib9free_jsonEPNS_7sk_jsonE
FNL:29,73,81
FNA:29,12,_ZN13splashkit_lib13free_all_jsonEv
FNL:30,83,92
FNA:30,4,_ZN13splashkit_lib14json_to_stringEPNS_7sk_jsonE
FNL:31,94,97
FNA:31,4,_ZN13splashkit_lib16json_from_stringERKNSt3__112basic_stringIcNS0_11char_traitsIcEENS0_9allocatorIcEEEE
FNL:32,99,110
FNA:32,2,_ZN13splashkit_lib14json_from_fileERKNSt3__112basic_stringIcNS0_11char_traitsIcEENS0_9allocatorIcEEEE
FNF:33
FNH:23
DA:20,4
DA:22,34
DA:24,34
DA:26,34
DA:27,34
DA:28,34
DA:30,34
DA:33,4
DA:35,4
DA:38,4
DA:39,4
DA:42,0
DA:43,0
DA:45,4
DA:46,0
DA:48,12
DA:50,12
DA:52,0
DA:53,0
DA:56,12
DA:58,12
DA:60,12
DA:62,12
DA:63,12
DA:64,12
DA:68,0
DA:71,12
DA:73,12
DA:75,34
DA:77,22
DA:80,12
DA:81,12
DA:83,4
DA:85,4
DA:87,0
DA:88,0
DA:91,4
DA:92,4
DA:94,4
DA:96,4
DA:97,0
DA:99,2
DA:101,2
DA:102,2
DA:104,0
DA:105,0
DA:106,0
DA:109,2
DA:110,2
DA:112,2
DA:114,2
DA:116,0
DA:117,0
DA:120,2
DA:121,2
DA:123,2
DA:124,2
DA:126,2
DA:127,2
DA:130,0
DA:131,0
DA:133,2
DA:135,62
DA:137,62
DA:138,62
DA:140,0
DA:142,0
DA:143,0
DA:145,0
DA:147,0
DA:148,0
DA:150,12
DA:152,12
DA:153,12
DA:155,12
DA:157,12
DA:158,12
DA:160,12
DA:162,12
DA:163,12
DA:165,12
DA:167,12
DA:168,12
DA:170,0
DA:172,0
DA:173,0
DA:175,0
DA:177,0
DA:178,0
DA:180,0
DA:182,0
DA:184,0
DA:186,0
DA:188,0
DA:189,0
DA:192,0
DA:196,0
DA:197,0
DA:199,18
DA:201,18
DA:202,0
DA:204,0
DA:206,0
DA:207,0
DA:209,2
DA:211,2
DA:212,0
DA:214,0
DA:216,0
DA:217,0
DA:219,2
DA:221,2
DA:222,0
DA:224,4
DA:226,4
DA:228,4
DA:229,4
DA:230,4
DA:231,4
DA:233,0
DA:235,0
DA:236,0
DA:238,0
DA:240,0
DA:241,0
DA:243,2
DA:245,2
DA:246,2
DA:248,0
DA:250,0
DA:251,0
DA:253,0
DA:255,0
DA:257,0
DA:258,0
DA:259,0
DA:260,0
DA:261,0
DA:263,10
DA:265,10
DA:267,0
DA:268,0
DA:271,10
DA:272,10
DA:274,2
DA:276,2
DA:278,0
DA:279,0
DA:282,2
DA:283,2
DA:285,2
DA:287,2
DA:288,2
DA:289,2
DA:290,2
DA:291,2
DA:293,2
DA:295,2
DA:297,0
DA:298,0
DA:301,2
DA:302,2
DA:303,2
LF:163
LH:95
end_of_record
TN:
SF:/Users/trungpham/Documents/splashkit-core/coresdk/src/coresdk/keyboard_input.cpp
FNL:0,0,28
FNA:0,4,__cxx_global_var_init
FNA:0,4,__cxx_global_var_init.1
FNA:0,4,__cxx_global_var_init.2
FNA:0,4,__cxx_global_var_init.3
FNA:0,4,__cxx_global_var_init.4
FNA:0,4,__cxx_global_var_init.5
FNL:1,101,103
FNA:1,0,_ZN13splashkit_lib9key_typedENS_8key_codeE
FNL:2,106,108
FNA:2,0,_ZN13splashkit_lib12key_releasedENS_8key_codeE
FNL:3,111,121
FNA:3,0,_ZN13splashkit_lib15any_key_pressedEv
FNL:4,123,125
FNA:4,0,_ZN13splashkit_lib8key_nameENS_8key_codeE
FNL:5,128,130
FNA:5,0,_ZN13splashkit_lib6key_upENS_8key_codeE
FNL:6,30,33
FNA:6,0,_ZN13splashkit_lib29register_callback_on_key_downEPFviE
FNL:7,35,38
FNA:7,0,_ZN13splashkit_lib27register_callback_on_key_upEPFviE
FNL:8,40,43
FNA:8,0,_ZN13splashkit_lib30register_callback_on_key_typedEPFviE
FNL:9,45,48
FNA:9,0,_ZN13splashkit_lib31deregister_callback_on_key_downEPFviE
FNL:10,50,53
FNA:10,0,_ZN13splashkit_lib29deregister_callback_on_key_upEPFviE
FNL:11,55,58
FNA:11,0,_ZN13splashkit_lib32deregister_callback_on_key_typedEPFviE
FNL:12,60,68
FNA:12,0,_ZN13splashkit_lib16_raise_key_eventERNSt3__16vectorIPFviENS0_9allocatorIS3_EEEENS_8key_codeE
FNL:13,70,74
FNA:13,0,_ZN13splashkit_lib30_keyboard_start_process_eventsEv
FNL:14,76,82
FNA:14,0,_ZN13splashkit_lib23_handle_key_up_callbackENS_8key_codeE
FNL:15,84,94
FNA:15,0,_ZN13splashkit_lib25_handle_key_down_callbackENS_8key_codeE
FNL:16,96,98
FNA:16,0,_ZN13splashkit_lib8key_downENS_8key_codeE
FNF:17
FNH:1
DA:22,4
DA:23,4
DA:24,4
DA:26,4
DA:27,4
DA:28,4
DA:30,0
DA:32,0
DA:33,0
DA:35,0
DA:37,0
DA:38,0
DA:40,0
DA:42,0
DA:43,0
DA:45,0
DA:47,0
DA:48,0
DA:50,0
DA:52,0
DA:53,0
DA:55,0
DA:57,0
DA:58,0
DA:60,0
DA:62,0
DA:65,0
DA:66,0
DA:68,0
DA:70,0
DA:72,0
DA:73,0
DA:74,0
DA:76,0
DA:78,0
DA:79,0
DA:80,0
DA:81,0
DA:82,0
DA:84,0
DA:86,0
DA:87,0
DA:89,0
DA:90,0
DA:91,0
DA:92,0
DA:93,0
DA:94,0
DA:96,0
DA:98,0
DA:101,0
DA:103,0
DA:106,0
DA:108,0
DA:111,0
DA:113,0
DA:115,0
DA:119,0
DA:121,0
DA:123,0
DA:125,0
DA:128,0
DA:130,0
LF:63
LH:6
end_of_record
TN:
SF:/Users/trungpham/Documents/splashkit-core/coresdk/src/coresdk/line_geometry.cpp
FNL:0,109,132
FNA:0,20,_ZN13splashkit_lib22closest_point_on_linesENS_8point_2dERKNSt3__16vectorINS_4lineENS1_9allocatorIS3_EEEERi
FNL:1,134,143
FNA:1,38,_ZN13splashkit_lib10lines_fromERKNS_8triangleE
FNL:2,145,153
FNA:2,18,_ZN13splashkit_lib10lines_fromERKNS_9rectangleE
FNL:3,155,157
FNA:3,126,_ZN13splashkit_lib11line_lengthERKNS_4lineE
FNL:4,160,166
FNA:4,62,_ZN13splashkit_lib15lines_intersectERKNS_4lineES2_
FNL:5,168,171
FNA:5,0,_ZN13splashkit_lib22line_intersects_circleERKNS_4lineERKNS_6circleE
FNL:6,17,19
FNA:6,326,_ZN13splashkit_lib9line_fromERKNS_8point_2dES2_
FNL:7,174,183
FNA:7,12,_ZN13splashkit_lib20line_intersects_rectERKNS_4lineERKNS_9rectangleE
FNL:8,185,190
FNA:8,2,_ZN13splashkit_lib14line_mid_pointERKNS_4lineE
FNL:9,193,195
FNA:9,2,_ZN13splashkit_lib11line_normalERKNS_4lineE
FNL:10,198,201
FNA:10,2,_ZN13splashkit_lib14line_to_stringERKNS_4lineE
FNL:11,203,216
FNA:11,16,_ZN13splashkit_lib21line_intersects_linesERKNS_4lineERKNSt3__16vectorIS0_NS3_9allocatorIS0_EEEE
FNL:12,22,24
FNA:12,208,_ZN13splashkit_lib9line_fromEdddd
FNL:13,27,29
FNA:13,2,_ZN13splashkit_lib9line_fromERKNS_8point_2dERKNS_9vector_2dE
FNL:14,32,35
FNA:14,400,_ZN13splashkit_lib19line_length_squaredERKNS_4lineE
FNL:15,38,40
FNA:15,2,_ZN13splashkit_lib9line_fromERKNS_9vector_2dE
FNL:16,43,73
FNA:16,96,_ZN13splashkit_lib23line_intersection_pointERKNS_4lineES2_RNS_8point_2dE
FNL:17,75,107
FNA:17,86,_ZN13splashkit_lib21closest_point_on_lineENS_8point_2dERKNS_4lineE
FNF:18
FNH:17
DA:17,326
DA:19,326
DA:22,208
DA:24,208
DA:27,2
DA:29,2
DA:32,400
DA:34,800
DA:35,400
DA:38,2
DA:40,2
DA:43,96
DA:51,96
DA:52,96
DA:55,96
DA:56,96
DA:57,96
DA:59,96
DA:60,96
DA:61,96
DA:63,96
DA:65,96
DA:66,30
DA:69,66
DA:70,66
DA:71,66
DA:73,96
DA:75,86
DA:81,86
DA:82,86
DA:84,0
DA:85,0
DA:88,86
DA:90,86
DA:94,32
DA:95,18
DA:97,14
DA:102,54
DA:103,54
DA:104,54
DA:107,86
DA:109,20
DA:111,20
DA:112,20
DA:114,20
DA:116,20
DA:119,84
DA:121,64
DA:122,64
DA:124,64
DA:126,28
DA:127,28
DA:128,28
DA:129,28
DA:130,64
DA:131,20
DA:132,20
DA:134,38
DA:136,38
DA:138,38
DA:139,38
DA:140,38
DA:142,38
DA:143,38
DA:145,18
DA:147,18
DA:148,18
DA:149,18
DA:150,18
DA:151,18
DA:152,18
DA:153,18
DA:155,126
DA:157,126
DA:160,62
DA:162,62
DA:165,62
DA:166,62
DA:168,0
DA:170,0
DA:171,0
DA:174,12
DA:177,12
DA:179,4
DA:182,8
DA:183,12
DA:185,2
DA:188,2
DA:189,2
DA:190,2
DA:193,2
DA:195,2
DA:198,2
DA:200,2
DA:201,0
DA:203,16
DA:208,36
DA:210,30
DA:212,10
DA:214,20
DA:215,6
DA:216,16
LF:102
LH:96
end_of_record
TN:
SF:/Users/trungpham/Documents/splashkit-core/coresdk/src/coresdk/logging.cpp
FNL:0,0,9
FNA:0,4,__cxx_global_var_init
FNL:1,11,47
FNA:1,0,_ZN13splashkit_lib18init_custom_loggerENSt3__112basic_stringIcNS0_11char_traitsIcEENS0_9allocatorIcEEEEbNS_8log_modeE
FNL:2,147,153
FNA:2,2,_ZN13splashkit_lib17close_log_processEv
FNL:3,49,53
FNA:3,0,_ZN13splashkit_lib18init_custom_loggerENS_8log_modeE
FNL:4,55,145
FNA:4,0,_ZN13splashkit_lib3logENS_9log_levelENSt3__112basic_stringIcNS1_11char_traitsIcEENS1_9allocatorIcEEEE
FNF:5
FNH:2
DA:9,4
DA:11,0
DA:13,0
DA:16,0
DA:18,0
DA:19,0
DA:20,0
DA:21,0
DA:23,0
DA:25,0
DA:26,0
DA:29,0
DA:31,0
DA:32,0
DA:34,0
DA:36,0
DA:37,0
DA:40,0
DA:42,0
DA:43,0
DA:45,0
DA:47,0
DA:49,0
DA:52,0
DA:53,0
DA:55,0
DA:57,0
DA:60,0
DA:62,0
DA:64,0
DA:66,0
DA:68,0
DA:69,0
DA:70,0
DA:72,0
DA:73,0
DA:74,0
DA:76,0
DA:78,0
DA:80,0
DA:82,0
DA:83,0
DA:84,0
DA:86,0
DA:87,0
DA:88,0
DA:90,0
DA:92,0
DA:94,0
DA:96,0
DA:97,0
DA:98,0
DA:100,0
DA:101,0
DA:102,0
DA:104,0
DA:106,0
DA:108,0
DA:110,0
DA:111,0
DA:112,0
DA:114,0
DA:115,0
DA:116,0
DA:118,0
DA:120,0
DA:121,0
DA:122,0
DA:124,0
DA:125,0
DA:126,0
DA:129,0
DA:130,0
DA:131,0
DA:133,0
DA:135,0
DA:136,0
DA:137,0
DA:138,0
DA:139,0
DA:141,0
DA:142,0
DA:143,0
DA:144,0
DA:145,0
DA:147,2
DA:149,2
DA:151,0
DA:152,0
DA:153,2
LF:90
LH:4
end_of_record
TN:
SF:/Users/trungpham/Documents/splashkit-core/coresdk/src/coresdk/matrix_2d.cpp
FNL:0,110,127
FNA:0,0,_ZN13splashkit_lib29scale_rotate_translate_matrixERKNS_8point_2dEdS2_
FNL:1,130,156
FNA:1,60,_ZN13splashkit_lib14matrix_inverseERKNS_9matrix_2dE
FNL:2,158,174
FNA:2,0,_ZN13splashkit_lib16matrix_to_stringERKNS_9matrix_2dE
FNL:3,176,209
FNA:3,188,_ZN13splashkit_lib15matrix_multiplyERKNS_9matrix_2dES2_
FNL:4,212,219
FNA:4,120,_ZN13splashkit_lib15matrix_multiplyERKNS_9matrix_2dERKNS_8point_2dE
FNL:5,222,229
FNA:5,84,_ZN13splashkit_lib15matrix_multiplyERKNS_9matrix_2dERKNS_9vector_2dE
FNL:6,23,39
FNA:6,126,_ZN13splashkit_lib15identity_matrixEv
FNL:7,232,237
FNA:7,0,_ZN13splashkit_lib12apply_matrixERKNS_9matrix_2dERNS_8triangleE
FNL:8,239,245
FNA:8,30,_ZN13splashkit_lib12apply_matrixERKNS_9matrix_2dERNS_4quadE
FNL:9,42,49
FNA:9,94,_ZN13splashkit_lib18translation_matrixEdd
FNL:10,52,54
FNA:10,0,_ZN13splashkit_lib18translation_matrixERKNS_9vector_2dE
FNL:11,57,59
FNA:11,32,_ZN13splashkit_lib18translation_matrixERKNS_8point_2dE
FNL:12,62,64
FNA:12,32,_ZN13splashkit_lib12scale_matrixEd
FNL:13,67,82
FNA:13,34,_ZN13splashkit_lib12scale_matrixERKNS_9vector_2dE
FNL:14,85,87
FNA:14,2,_ZN13splashkit_lib12scale_matrixERKNS_8point_2dE
FNL:15,90,107
FNA:15,34,_ZN13splashkit_lib15rotation_matrixEd
FNF:16
FNH:12
DA:23,126
DA:27,126
DA:28,126
DA:29,126
DA:31,126
DA:32,126
DA:33,126
DA:35,126
DA:36,126
DA:37,126
DA:39,126
DA:42,94
DA:44,94
DA:46,94
DA:47,94
DA:49,94
DA:52,0
DA:54,0
DA:57,32
DA:59,32
DA:62,32
DA:64,32
DA:67,34
DA:70,34
DA:71,34
DA:72,34
DA:74,34
DA:75,34
DA:76,34
DA:78,34
DA:79,34
DA:80,34
DA:82,34
DA:85,2
DA:87,2
DA:90,34
DA:92,34
DA:95,34
DA:96,34
DA:97,34
DA:99,34
DA:100,34
DA:101,34
DA:103,34
DA:104,34
DA:105,34
DA:107,34
DA:110,0
DA:112,0
DA:115,0
DA:116,0
DA:117,0
DA:119,0
DA:120,0
DA:121,0
DA:123,0
DA:124,0
DA:125,0
DA:127,0
DA:130,60
DA:132,180
DA:133,120
DA:134,60
DA:137,60
DA:139,0
DA:140,0
DA:141,0
DA:143,60
DA:146,60
DA:147,60
DA:148,60
DA:149,60
DA:150,60
DA:151,60
DA:152,60
DA:153,60
DA:154,60
DA:155,60
DA:156,0
DA:158,0
DA:160,0
DA:161,0
DA:163,0
DA:165,0
DA:166,0
DA:168,0
DA:169,0
DA:170,0
DA:171,0
DA:172,0
DA:173,0
DA:174,0
DA:176,188
DA:180,564
DA:181,376
DA:182,188
DA:183,564
DA:184,376
DA:185,188
DA:186,564
DA:187,376
DA:188,188
DA:190,564
DA:191,376
DA:192,188
DA:193,564
DA:194,376
DA:195,188
DA:196,564
DA:197,376
DA:198,188
DA:200,564
DA:201,376
DA:202,188
DA:203,564
DA:204,376
DA:205,188
DA:206,564
DA:207,376
DA:208,188
DA:209,188
DA:212,120
DA:216,120
DA:217,120
DA:219,120
DA:222,84
DA:226,84
DA:227,84
DA:229,84
DA:232,0
DA:234,0
DA:235,0
DA:236,0
DA:237,0
DA:239,30
DA:241,150
DA:243,120
DA:244,120
DA:245,30
LF:139
LH:103
end_of_record
TN:
SF:/Users/trungpham/Documents/splashkit-core/coresdk/src/coresdk/mouse_input.cpp
FNL:0,0,24
FNA:0,4,__cxx_global_var_init
FNL:1,101,103
FNA:1,0,_ZN13splashkit_lib8mouse_upENS_12mouse_buttonE
FNL:2,106,112
FNA:2,18,_ZN13splashkit_lib13mouse_clickedENS_12mouse_buttonE
FNL:3,114,120
FNA:3,0,_ZN13splashkit_lib10move_mouseEdd
FNL:4,122,125
FNA:4,0,_ZN13splashkit_lib10move_mouseENS_8point_2dE
FNL:5,127,130
FNA:5,0,_ZN13splashkit_lib10show_mouseEv
FNL:6,132,135
FNA:6,0,_ZN13splashkit_lib10show_mouseEb
FNL:7,137,140
FNA:7,0,_ZN13splashkit_lib10hide_mouseEv
FNL:8,142,144
FNA:8,0,_ZN13splashkit_lib11mouse_shownEv
FNL:9,26,32
FNA:9,0,_ZN13splashkit_lib27_mouse_start_process_eventsEv
FNL:10,34,37
FNA:10,0,_ZN13splashkit_lib23_process_mouse_up_eventEi
FNL:11,39,43
FNA:11,0,_ZN13splashkit_lib29_process_mouse_wheel_callbackEii
FNL:12,46,48
FNA:12,0,_ZN13splashkit_lib21mouse_position_vectorEv
FNL:13,51,71
FNA:13,0,_ZN13splashkit_lib14mouse_positionEv
FNL:14,74,76
FNA:14,0,_ZN13splashkit_lib7mouse_xEv
FNL:15,79,81
FNA:15,0,_ZN13splashkit_lib7mouse_yEv
FNL:16,84,88
FNA:16,0,_ZN13splashkit_lib14mouse_movementEv
FNL:17,91,93
FNA:17,0,_ZN13splashkit_lib18mouse_wheel_scrollEv
FNL:18,96,98
FNA:18,0,_ZN13splashkit_lib10mouse_downENS_12mouse_buttonE
FNF:19
FNH:2
DA:24,4
DA:26,0
DA:30,0
DA:31,0
DA:32,0
DA:34,0
DA:36,0
DA:37,0
DA:39,0
DA:41,0
DA:42,0
DA:43,0
DA:46,0
DA:48,0
DA:51,0
DA:53,0
DA:54,0
DA:57,0
DA:59,0
DA:64,0
DA:65,0
DA:67,0
DA:68,0
DA:69,0
DA:71,0
DA:74,0
DA:76,0
DA:79,0
DA:81,0
DA:84,0
DA:87,0
DA:88,0
DA:91,0
DA:93,0
DA:96,0
DA:98,0
DA:101,0
DA:103,0
DA:106,18
DA:108,18
DA:109,0
DA:111,18
DA:112,18
DA:114,0
DA:116,0
DA:118,0
DA:119,0
DA:120,0
DA:122,0
DA:124,0
DA:125,0
DA:127,0
DA:129,0
DA:130,0
DA:132,0
DA:134,0
DA:135,0
DA:137,0
DA:139,0
DA:140,0
DA:142,0
DA:144,0
LF:62
LH:5
end_of_record
TN:
SF:/Users/trungpham/Documents/splashkit-core/coresdk/src/coresdk/music.cpp
FNL:0,0,19
FNA:0,4,__cxx_global_var_init
FNL:1,110,112
FNA:1,6,_ZN13splashkit_lib11music_validEPNS_11_music_dataE
FNL:2,115,117
FNA:2,34,_ZN13splashkit_lib9has_musicERKNSt3__112basic_stringIcNS0_11char_traitsIcEENS0_9allocatorIcEEEE
FNL:3,120,132
FNA:3,6,_ZN13splashkit_lib11music_namedERKNSt3__112basic_stringIcNS0_11char_traitsIcEENS0_9allocatorIcEEEE
FNL:4,134,146
FNA:4,4,_ZN13splashkit_lib10play_musicEPNS_11_music_dataEid
FNL:5,148,151
FNA:5,2,_ZN13splashkit_lib10play_musicEPNS_11_music_dataE
FNL:6,153,156
FNA:6,0,_ZN13splashkit_lib10play_musicEPNS_11_music_dataEi
FNL:7,158,161
FNA:7,0,_ZN13splashkit_lib10play_musicERKNSt3__112basic_stringIcNS0_11char_traitsIcEENS0_9allocatorIcEEEEi
FNL:8,163,166
FNA:8,0,_ZN13splashkit_lib10play_musicERKNSt3__112basic_stringIcNS0_11char_traitsIcEENS0_9allocatorIcEEEE
FNL:9,168,180
FNA:9,0,_ZN13splashkit_lib13fade_music_inEPNS_11_music_dataEii
FNL:10,182,185
FNA:10,0,_ZN13splashkit_lib13fade_music_inEPNS_11_music_dataEi
FNL:11,187,190
FNA:11,0,_ZN13splashkit_lib13fade_music_inERKNSt3__112basic_stringIcNS0_11char_traitsIcEENS0_9allocatorIcEEEEii
FNL:12,192,195
FNA:12,0,_ZN13splashkit_lib13fade_music_inERKNSt3__112basic_stringIcNS0_11char_traitsIcEENS0_9allocatorIcEEEEi
FNL:13,197,200
FNA:13,0,_ZN13splashkit_lib14fade_music_outEi
FNL:14,202,205
FNA:14,2,_ZN13splashkit_lib11pause_musicEv
FNL:15,207,210
FNA:15,2,_ZN13splashkit_lib12resume_musicEv
FNL:16,212,215
FNA:16,2,_ZN13splashkit_lib10stop_musicEv
FNL:17,217,219
FNA:17,10,_ZN13splashkit_lib13music_playingEv
FNL:18,222,225
FNA:18,6,_ZN13splashkit_lib16set_music_volumeEd
FNL:19,227,229
FNA:19,8,_ZN13splashkit_lib12music_volumeEv
FNL:20,23
FNA:20,6,_ZN13splashkit_lib11_music_dataC1Ev
FNA:20,6,_ZN13splashkit_lib11_music_dataC2Ev
FNA:20,6,_ZN13splashkit_lib11_music_dataD1Ev
FNA:20,6,_ZN13splashkit_lib11_music_dataD2Ev
FNL:21,232,236
FNA:21,6,_ZN13splashkit_lib10music_nameEPNS_11_music_dataE
FNL:22,238,242
FNA:22,6,_ZN13splashkit_lib14music_filenameEPNS_11_music_dataE
FNL:23,30,70
FNA:23,8,_ZN13splashkit_lib10load_musicERKNSt3__112basic_stringIcNS0_11char_traitsIcEENS0_9allocatorIcEEEES8_
FNL:24,72,87
FNA:24,6,_ZN13splashkit_lib10free_musicEPNS_11_music_dataE
FNL:25,89,108
FNA:25,2,_ZN13splashkit_lib14free_all_musicEv
FNF:26
FNH:18
DA:19,4
DA:30,8
DA:32,8
DA:34,0
DA:35,0
DA:37,8
DA:39,8
DA:41,8
DA:43,8
DA:45,8
DA:47,2
DA:48,2
DA:50,6
DA:52,6
DA:54,6
DA:55,6
DA:56,6
DA:57,6
DA:60,6
DA:62,0
DA:63,0
DA:64,0
DA:65,0
DA:68,6
DA:69,6
DA:70,8
DA:72,6
DA:74,6
DA:76,6
DA:78,6
DA:79,6
DA:80,6
DA:81,6
DA:82,6
DA:85,0
DA:87,6
DA:89,2
DA:91,2
DA:93,2
DA:95,6
DA:97,4
DA:98,4
DA:100,4
DA:101,4
DA:104,0
DA:105,0
DA:107,4
DA:108,2
DA:110,6
DA:112,6
DA:115,34
DA:117,34
DA:120,6
DA:122,6
DA:123,6
DA:126,0
DA:128,0
DA:129,0
DA:130,0
DA:131,0
DA:132,6
DA:134,4
DA:136,4
DA:137,0
DA:139,4
DA:141,0
DA:142,0
DA:145,4
DA:146,4
DA:148,2
DA:150,2
DA:151,2
DA:153,0
DA:155,0
DA:156,0
DA:158,0
DA:160,0
DA:161,0
DA:163,0
DA:165,0
DA:166,0
DA:168,0
DA:170,0
DA:171,0
DA:173,0
DA:175,0
DA:176,0
DA:179,0
DA:180,0
DA:182,0
DA:184,0
DA:185,0
DA:187,0
DA:189,0
DA:190,0
DA:192,0
DA:194,0
DA:195,0
DA:197,0
DA:199,0
DA:200,0
DA:202,2
DA:204,2
DA:205,2
DA:207,2
DA:209,2
DA:210,2
DA:212,2
DA:214,2
DA:215,2
DA:217,10
DA:219,10
DA:222,6
DA:224,6
DA:225,6
DA:227,8
DA:229,8
DA:232,6
DA:234,6
DA:235,6
DA:236,6
DA:238,6
DA:240,6
DA:241,6
DA:242,6
LF:125
LH:79
end_of_record
TN:
SF:/Users/trungpham/Documents/splashkit-core/coresdk/src/coresdk/networking.cpp
FNL:0,0,31
FNA:0,4,__cxx_global_var_init
FNA:0,4,__cxx_global_var_init.1
FNA:0,4,__cxx_global_var_init.2
FNL:1,1005,1009
FNA:1,0,_ZN13splashkit_lib12_pop_messageERNSt3__16vectorIPNS_10sk_messageENS0_9allocatorIS3_EEEE
FNL:2,1012,1021
FNA:2,0,_ZN13splashkit_lib12read_messageEPNS_18sk_connection_dataE
FNL:3,1023,1025
FNA:3,0,_ZN13splashkit_lib12read_messageERKNSt3__112basic_stringIcNS0_11char_traitsIcEENS0_9allocatorIcEEEE
FNL:4,1028,1051
FNA:4,0,_ZN13splashkit_lib12read_messageEPNS_14sk_server_dataE
FNL:5,1053,1067
FNA:5,0,_ZN13splashkit_lib12read_messageEv
FNL:6,1070,1091
FNA:6,0,_ZN13splashkit_lib17read_message_dataEPNS_18sk_connection_dataE
FNL:7,1093,1114
FNA:7,0,_ZN13splashkit_lib17read_message_dataEPNS_14sk_server_dataE
FNL:8,110,112
FNA:8,0,_ZN13splashkit_lib12close_serverERKNSt3__112basic_stringIcNS0_11char_traitsIcEENS0_9allocatorIcEEEE
FNL:9,1116,1131
FNA:9,0,_ZN13splashkit_lib17read_message_dataERKNSt3__112basic_stringIcNS0_11char_traitsIcEENS0_9allocatorIcEEEE
FNL:10,1133,1189
FNA:10,0,_ZN13splashkit_lib15send_message_toERKNSt3__112basic_stringIcNS0_11char_traitsIcEENS0_9allocatorIcEEEEPNS_18sk_connection_dataE
FNL:11,115,115
FNA:11,26,_ZN13splashkit_lib17close_all_serversEv
FNL:12,117,118
FNA:12,0,_ZZN13splashkit_lib17close_all_serversEvENK3$_0clEPNS_14sk_server_dataE
FNL:13,1191,1193
FNA:13,0,_ZN13splashkit_lib15send_message_toERKNSt3__112basic_stringIcNS0_11char_traitsIcEENS0_9allocatorIcEEEES8_
FNL:14,1196,1201
FNA:14,6,_ZN13splashkit_lib19name_for_connectionENSt3__112basic_stringIcNS0_11char_traitsIcEENS0_9allocatorIcEEEEj
FNL:15,120,122
FNA:15,14,_ZN13splashkit_lib10has_serverERKNSt3__112basic_stringIcNS0_11char_traitsIcEENS0_9allocatorIcEEEE
FNL:16,1203,1211
FNA:16,14,_ZN13splashkit_lib15hex_str_to_ipv4ERKNSt3__112basic_stringIcNS0_11char_traitsIcEENS0_9allocatorIcEEEE
FNL:17,1213,1229
FNA:17,52,_ZN13splashkit_lib17hex_to_dec_stringERKNSt3__112basic_stringIcNS0_11char_traitsIcEENS0_9allocatorIcEEEE
FNL:18,1232,1238
FNA:18,10,_ZN13splashkit_lib10dec_to_hexEj
FNL:19,1240,1254
FNA:19,18,_ZN13splashkit_lib11ipv4_to_decERKNSt3__112basic_stringIcNS0_11char_traitsIcEENS0_9allocatorIcEEEE
FNL:20,125,127
FNA:20,4,_ZN13splashkit_lib25server_has_new_connectionERKNSt3__112basic_stringIcNS0_11char_traitsIcEENS0_9allocatorIcEEEE
FNL:21,1256,1273
FNA:21,14,_ZN13splashkit_lib11ipv4_to_hexERKNSt3__112basic_stringIcNS0_11char_traitsIcEENS0_9allocatorIcEEEE
FNL:22,1275,1284
FNA:22,10,_ZN13splashkit_lib11dec_to_ipv4Ej
FNL:23,1286,1289
FNA:23,2,_ZN13splashkit_lib5my_ipEv
FNL:24,1292,1299
FNA:24,40,_ZN13splashkit_lib13is_valid_ipv4ERKNSt3__112basic_stringIcNS0_11char_traitsIcEENS0_9allocatorIcEEEE
FNL:25,130,139
FNA:25,10,_ZN13splashkit_lib25server_has_new_connectionEPNS_14sk_server_dataE
FNL:26,1301,1309
FNA:26,0,_ZN13splashkit_lib12is_valid_macERKNSt3__112basic_stringIcNS0_11char_traitsIcEENS0_9allocatorIcEEEE
FNL:27,1311,1334
FNA:27,0,_ZN13splashkit_lib10mac_to_hexERKNSt3__112basic_stringIcNS0_11char_traitsIcEENS0_9allocatorIcEEEE
FNL:28,1336,1356
FNA:28,0,_ZN13splashkit_lib10hex_to_macERKNSt3__112basic_stringIcNS0_11char_traitsIcEENS0_9allocatorIcEEEE
FNL:29,141,151
FNA:29,2,_ZN13splashkit_lib19has_new_connectionsEv
FNL:30,153,169
FNA:30,8,_ZN13splashkit_lib18_create_connectionERKNSt3__112basic_stringIcNS0_11char_traitsIcEENS0_9allocatorIcEEEENS_15connection_typeE
FNL:31,172,200
FNA:31,8,_ZN13splashkit_lib21_establish_connectionEPNS_18sk_connection_dataERKNSt3__112basic_stringIcNS2_11char_traitsIcEENS2_9allocatorIcEEEEtNS_15connection_typeE
FNL:32,202,205
FNA:32,0,_ZN13splashkit_lib15open_connectionERKNSt3__112basic_stringIcNS0_11char_traitsIcEENS0_9allocatorIcEEEEt
FNL:33,207,209
FNA:33,0,_ZN13splashkit_lib15open_connectionERKNSt3__112basic_stringIcNS0_11char_traitsIcEENS0_9allocatorIcEEEES8_t
FNL:34,212,227
FNA:34,8,_ZN13splashkit_lib15open_connectionERKNSt3__112basic_stringIcNS0_11char_traitsIcEENS0_9allocatorIcEEEES8_tNS_15connection_typeE
FNL:35,229,242
FNA:35,4,_ZN13splashkit_lib15shut_connectionEPNS_18sk_connection_dataE
FNL:36,244,246
FNA:36,8,_ZN13splashkit_lib14has_connectionERKNSt3__112basic_stringIcNS0_11char_traitsIcEENS0_9allocatorIcEEEE
FNL:37,249,251
FNA:37,0,_ZN13splashkit_lib19retrieve_connectionERKNSt3__112basic_stringIcNS0_11char_traitsIcEENS0_9allocatorIcEEEEi
FNL:38,254,263
FNA:38,0,_ZN13splashkit_lib19retrieve_connectionEPNS_14sk_server_dataEi
FNL:39,265,265
FNA:39,26,_ZN13splashkit_lib21close_all_connectionsEv
FNL:40,267,268
FNA:40,4,_ZZN13splashkit_lib21close_all_connectionsEvENK3$_1clEPNS_18sk_connection_dataE
FNL:41,270,312
FNA:41,4,_ZN13splashkit_lib16close_connectionEPNS_18sk_connection_dataE
FNL:42,314,316
FNA:42,0,_ZN13splashkit_lib16close_connectionERKNSt3__112basic_stringIcNS0_11char_traitsIcEENS0_9allocatorIcEEEE
FNL:43,319,321
FNA:43,0,_ZN13splashkit_lib16connection_countERKNSt3__112basic_stringIcNS0_11char_traitsIcEENS0_9allocatorIcEEEE
FNL:44,324,333
FNA:44,4,_ZN13splashkit_lib16connection_countEPNS_14sk_server_dataE
FNL:45,33,66
FNA:45,8,_ZN13splashkit_lib13create_serverERKNSt3__112basic_stringIcNS0_11char_traitsIcEENS0_9allocatorIcEEEEtNS_15connection_typeE
FNL:46,335,337
FNA:46,0,_ZN13splashkit_lib13connection_ipERKNSt3__112basic_stringIcNS0_11char_traitsIcEENS0_9allocatorIcEEEE
FNL:47,340,348
FNA:47,0,_ZN13splashkit_lib13connection_ipEPNS_18sk_connection_dataE
FNL:48,350,359
FNA:48,0,_ZN13splashkit_lib16connection_namedERKNSt3__112basic_stringIcNS0_11char_traitsIcEENS0_9allocatorIcEEEE
FNL:49,361,370
FNA:49,6,_ZN13splashkit_lib18is_connection_openEPNS_18sk_connection_dataE
FNL:50,372,374
FNA:50,0,_ZN13splashkit_lib18is_connection_openERKNSt3__112basic_stringIcNS0_11char_traitsIcEENS0_9allocatorIcEEEE
FNL:51,377,386
FNA:51,4,_ZN13splashkit_lib20new_connection_countEPNS_14sk_server_dataE
FNL:52,388,406
FNA:52,0,_ZN13splashkit_lib20fetch_new_connectionEPNS_14sk_server_dataE
FNL:53,408,417
FNA:53,0,_ZN13splashkit_lib26reset_new_connection_countEPNS_14sk_server_dataE
FNL:54,419,447
FNA:54,0,_ZN13splashkit_lib21accept_new_connectionEPNS_14sk_server_dataE
FNL:55,449,462
FNA:55,0,_ZN13splashkit_lib26accept_all_new_connectionsEv
FNL:56,464,472
FNA:56,0,_ZN13splashkit_lib15connection_portEPNS_18sk_connection_dataE
FNL:57,474,476
FNA:57,0,_ZN13splashkit_lib15connection_portERKNSt3__112basic_stringIcNS0_11char_traitsIcEENS0_9allocatorIcEEEE
FNL:58,479,492
FNA:58,2,_ZN13splashkit_lib15last_connectionEPNS_14sk_server_dataE
FNL:59,494,496
FNA:59,0,_ZN13splashkit_lib15last_connectionERKNSt3__112basic_stringIcNS0_11char_traitsIcEENS0_9allocatorIcEEEE
FNL:60,499,502
FNA:60,0,_ZN13splashkit_lib9reconnectERKNSt3__112basic_stringIcNS0_11char_traitsIcEENS0_9allocatorIcEEEE
FNL:61,504,517
FNA:61,0,_ZN13splashkit_lib9reconnectEPNS_18sk_connection_dataE
FNL:62,519,523
FNA:62,0,_ZN13splashkit_lib23release_all_connectionsEv
FNL:63,525,534
FNA:63,0,_ZN13splashkit_lib18message_connectionEPNS_10sk_messageE
FNL:64,536,538
FNA:64,0,_ZN13splashkit_lib15udp_packet_sizeEv
FNL:65,541,544
FNA:65,0,_ZN13splashkit_lib19set_udp_packet_sizeEj
FNL:66,546,560
FNA:66,0,_ZN13splashkit_lib20_enqueue_tcp_messageERKNSt3__16vectorIaNS0_9allocatorIaEEEEPNS_18sk_connection_dataE
FNL:67,562,575
FNA:67,0,_ZN13splashkit_lib20_enqueue_udp_messageERNSt3__16vectorIPNS_10sk_messageENS0_9allocatorIS3_EEEEPKcmji
FNL:68,577,608
FNA:68,0,_ZN13splashkit_lib22_read_udp_message_fromENS_21sk_network_connectionERNSt3__16vectorIPNS_10sk_messageENS1_9allocatorIS4_EEEE
FNL:69,610,682
FNA:69,0,_ZN13splashkit_lib13_extract_dataEPciPNS_18sk_connection_dataE
FNL:70,68,70
FNA:70,0,_ZN13splashkit_lib13create_serverERKNSt3__112basic_stringIcNS0_11char_traitsIcEENS0_9allocatorIcEEEEt
FNL:71,684,723
FNA:71,0,_ZN13splashkit_lib26_check_connection_for_dataEPNS_18sk_connection_dataE
FNL:72,725,733
FNA:72,0,_ZN13splashkit_lib26_check_udp_socket_for_dataEPNS_14sk_server_dataE
FNL:73,73,82
FNA:73,4,_ZN13splashkit_lib12server_namedERKNSt3__112basic_stringIcNS0_11char_traitsIcEENS0_9allocatorIcEEEE
FNL:74,735,765
FNA:74,0,_ZN13splashkit_lib22check_network_activityEv
FNL:75,767,777
FNA:75,0,_ZN13splashkit_lib17broadcast_messageERKNSt3__112basic_stringIcNS0_11char_traitsIcEENS0_9allocatorIcEEEE
FNL:76,779,782
FNA:76,0,_ZN13splashkit_lib17broadcast_messageERKNSt3__112basic_stringIcNS0_11char_traitsIcEENS0_9allocatorIcEEEES8_
FNL:77,784,796
FNA:77,0,_ZN13splashkit_lib17broadcast_messageERKNSt3__112basic_stringIcNS0_11char_traitsIcEENS0_9allocatorIcEEEEPNS_14sk_server_dataE
FNL:78,798,806
FNA:78,8,_ZN13splashkit_lib14clear_messagesEPNS_14sk_server_dataE
FNL:79,808,816
FNA:79,4,_ZN13splashkit_lib14clear_messagesEPNS_18sk_connection_dataE
FNL:80,818,828
FNA:80,0,_ZN13splashkit_lib14clear_messagesERKNSt3__112basic_stringIcNS0_11char_traitsIcEENS0_9allocatorIcEEEE
FNL:81,830,840
FNA:81,0,_ZN13splashkit_lib13close_messageEPNS_10sk_messageE
FNL:82,84,108
FNA:82,8,_ZN13splashkit_lib12close_serverEPNS_14sk_server_dataE
FNL:83,842,860
FNA:83,0,_ZN13splashkit_lib12has_messagesEv
FNL:84,862,871
FNA:84,0,_ZN13splashkit_lib12has_messagesEPNS_18sk_connection_dataE
FNL:85,873,895
FNA:85,0,_ZN13splashkit_lib12has_messagesEPNS_14sk_server_dataE
FNL:86,897,908
FNA:86,0,_ZN13splashkit_lib12has_messagesERKNSt3__112basic_stringIcNS0_11char_traitsIcEENS0_9allocatorIcEEEE
FNL:87,910,921
FNA:87,0,_ZN13splashkit_lib13message_countERKNSt3__112basic_stringIcNS0_11char_traitsIcEENS0_9allocatorIcEEEE
FNL:88,923,932
FNA:88,0,_ZN13splashkit_lib13message_countEPNS_18sk_connection_dataE
FNL:89,934,943
FNA:89,0,_ZN13splashkit_lib13message_countEPNS_14sk_server_dataE
FNL:90,945,958
FNA:90,0,_ZN13splashkit_lib12message_dataEPNS_10sk_messageE
FNL:91,960,970
FNA:91,0,_ZN13splashkit_lib18message_data_bytesEPNS_10sk_messageE
FNL:92,972,981
FNA:92,0,_ZN13splashkit_lib12message_hostEPNS_10sk_messageE
FNL:93,983,992
FNA:93,0,_ZN13splashkit_lib12message_portEPNS_10sk_messageE
FNL:94,994,1003
FNA:94,0,_ZN13splashkit_lib16message_protocolEPNS_10sk_messageE
FNF:95
FNH:32
DA:29,4
DA:30,4
DA:31,4
DA:33,8
DA:36,8
DA:38,4
DA:39,4
DA:40,4
DA:42,4
DA:43,4
DA:46,0
DA:49,8
DA:51,8
DA:52,8
DA:53,8
DA:54,8
DA:55,8
DA:56,8
DA:57,8
DA:59,8
DA:61,8
DA:64,0
DA:65,0
DA:66,8
DA:68,0
DA:70,0
DA:73,4
DA:75,4
DA:77,4
DA:80,0
DA:81,0
DA:82,4
DA:84,8
DA:86,8
DA:88,0
DA:89,0
DA:92,8
DA:94,8
DA:96,0
DA:100,8
DA:101,8
DA:103,8
DA:105,8
DA:107,8
DA:108,8
DA:110,0
DA:112,0
DA:115,26
DA:117,26
DA:118,26
DA:120,14
DA:122,14
DA:125,4
DA:127,4
DA:130,10
DA:132,10
DA:134,0
DA:135,0
DA:138,10
DA:139,10
DA:141,2
DA:143,4
DA:145,2
DA:147,0
DA:150,2
DA:151,2
DA:153,8
DA:155,8
DA:157,8
DA:158,8
DA:159,8
DA:160,8
DA:161,8
DA:162,8
DA:164,8
DA:165,8
DA:166,8
DA:167,8
DA:169,8
DA:172,8
DA:174,8
DA:175,8
DA:176,8
DA:178,8
DA:180,6
DA:181,6
DA:182,2
DA:184,2
DA:185,2
DA:188,0
DA:189,0
DA:192,8
DA:194,4
DA:197,4
DA:199,4
DA:200,8
DA:202,0
DA:204,0
DA:205,0
DA:207,0
DA:209,0
DA:212,8
DA:214,8
DA:216,8
DA:218,4
DA:219,4
DA:223,4
DA:224,4
DA:225,4
DA:227,8
DA:229,4
DA:231,4
DA:233,0
DA:234,0
DA:237,4
DA:239,4
DA:240,4
DA:241,4
DA:242,4
DA:244,8
DA:246,8
DA:249,0
DA:251,0
DA:254,0
DA:256,0
DA:258,0
DA:259,0
DA:262,0
DA:263,0
DA:265,26
DA:267,34
DA:268,26
DA:270,4
DA:272,4
DA:274,0
DA:275,0
DA:278,4
DA:279,4
DA:280,4
DA:282,4
DA:284,4
DA:285,4
DA:286,4
DA:287,4
DA:288,4
DA:291,0
DA:293,0
DA:294,0
DA:296,0
DA:298,0
DA:300,0
DA:301,0
DA:303,0
DA:304,0
DA:305,0
DA:306,0
DA:307,0
DA:308,0
DA:311,4
DA:312,4
DA:314,0
DA:316,0
DA:319,0
DA:321,0
DA:324,4
DA:326,4
DA:328,0
DA:329,0
DA:332,4
DA:333,4
DA:335,0
DA:337,0
DA:340,0
DA:342,0
DA:344,0
DA:345,0
DA:347,0
DA:348,0
DA:350,0
DA:352,0
DA:354,0
DA:357,0
DA:358,0
DA:359,0
DA:361,6
DA:363,6
DA:365,4
DA:366,4
DA:369,2
DA:370,6
DA:372,0
DA:374,0
DA:377,4
DA:379,4
DA:381,0
DA:382,0
DA:385,4
DA:386,4
DA:388,0
DA:390,0
DA:392,0
DA:393,0
DA:396,0
DA:399,0
DA:400,0
DA:402,0
DA:404,0
DA:405,0
DA:406,0
DA:408,0
DA:410,0
DA:412,0
DA:413,0
DA:416,0
DA:417,0
DA:419,0
DA:421,0
DA:423,0
DA:424,0
DA:427,0
DA:429,0
DA:431,0
DA:432,0
DA:434,0
DA:435,0
DA:436,0
DA:437,0
DA:438,0
DA:440,0
DA:441,0
DA:443,0
DA:446,0
DA:447,0
DA:449,0
DA:451,0
DA:453,0
DA:455,0
DA:457,0
DA:458,0
DA:459,0
DA:461,0
DA:462,0
DA:464,0
DA:466,0
DA:468,0
DA:469,0
DA:471,0
DA:472,0
DA:474,0
DA:476,0
DA:479,2
DA:481,2
DA:483,0
DA:484,0
DA:487,2
DA:489,2
DA:491,0
DA:492,2
DA:494,0
DA:496,0
DA:499,0
DA:501,0
DA:502,0
DA:504,0
DA:506,0
DA:508,0
DA:509,0
DA:512,0
DA:513,0
DA:515,0
DA:516,0
DA:517,0
DA:519,0
DA:521,0
DA:522,0
DA:523,0
DA:525,0
DA:527,0
DA:529,0
DA:530,0
DA:533,0
DA:534,0
DA:536,0
DA:538,0
DA:541,0
DA:543,0
DA:544,0
DA:546,0
DA:548,0
DA:550,0
DA:551,0
DA:552,0
DA:553,0
DA:554,0
DA:555,0
DA:557,0
DA:558,0
DA:559,0
DA:560,0
DA:562,0
DA:564,0
DA:565,0
DA:566,0
DA:568,0
DA:569,0
DA:570,0
DA:571,0
DA:572,0
DA:573,0
DA:574,0
DA:575,0
DA:577,0
DA:579,0
DA:581,0
DA:585,0
DA:587,0
DA:589,0
DA:590,0
DA:591,0
DA:593,0
DA:595,0
DA:597,0
DA:598,0
DA:600,0
DA:601,0
DA:602,0
DA:604,0
DA:605,0
DA:607,0
DA:608,0
DA:610,0
DA:612,0
DA:613,0
DA:614,0
DA:618,0
DA:621,0
DA:623,0
DA:624,0
DA:625,0
DA:626,0
DA:627,0
DA:630,0
DA:632,0
DA:635,0
DA:638,0
DA:640,0
DA:641,0
DA:644,0
DA:646,0
DA:648,0
DA:649,0
DA:652,0
DA:653,0
DA:655,0
DA:656,0
DA:657,0
DA:658,0
DA:660,0
DA:662,0
DA:665,0
DA:666,0
DA:668,0
DA:670,0
DA:671,0
DA:672,0
DA:675,0
DA:676,0
DA:678,0
DA:681,0
DA:682,0
DA:684,0
DA:686,0
DA:688,0
DA:689,0
DA:692,0
DA:694,0
DA:695,0
DA:696,0
DA:698,0
DA:701,0
DA:703,0
DA:705,0
DA:706,0
DA:709,0
DA:710,0
DA:713,0
DA:716,0
DA:717,0
DA:719,0
DA:722,0
DA:723,0
DA:725,0
DA:727,0
DA:729,0
DA:732,0
DA:733,0
DA:735,0
DA:737,0
DA:738,0
DA:740,0
DA:742,0
DA:744,0
DA:746,0
DA:747,0
DA:749,0
DA:751,0
DA:752,0
DA:753,0
DA:756,0
DA:758,0
DA:760,0
DA:762,0
DA:763,0
DA:765,0
DA:767,0
DA:769,0
DA:771,0
DA:773,0
DA:775,0
DA:777,0
DA:779,0
DA:781,0
DA:782,0
DA:784,0
DA:786,0
DA:788,0
DA:789,0
DA:792,0
DA:794,0
DA:796,0
DA:798,8
DA:800,8
DA:802,0
DA:805,8
DA:806,8
DA:808,4
DA:810,4
DA:812,0
DA:815,4
DA:816,4
DA:818,0
DA:820,0
DA:822,0
DA:823,0
DA:824,0
DA:826,0
DA:827,0
DA:828,0
DA:830,0
DA:832,0
DA:834,0
DA:835,0
DA:838,0
DA:839,0
DA:840,0
DA:842,0
DA:844,0
DA:846,0
DA:848,0
DA:851,0
DA:853,0
DA:855,0
DA:859,0
DA:860,0
DA:862,0
DA:864,0
DA:866,0
DA:867,0
DA:870,0
DA:871,0
DA:873,0
DA:875,0
DA:877,0
DA:878,0
DA:881,0
DA:883,0
DA:886,0
DA:888,0
DA:890,0
DA:894,0
DA:895,0
DA:897,0
DA:899,0
DA:900,0
DA:901,0
DA:902,0
DA:905,0
DA:906,0
DA:908,0
DA:910,0
DA:912,0
DA:913,0
DA:914,0
DA:915,0
DA:918,0
DA:919,0
DA:921,0
DA:923,0
DA:925,0
DA:927,0
DA:928,0
DA:931,0
DA:932,0
DA:934,0
DA:936,0
DA:938,0
DA:939,0
DA:942,0
DA:943,0
DA:945,0
DA:947,0
DA:949,0
DA:950,0
DA:953,0
DA:955,0
DA:957,0
DA:958,0
DA:960,0
DA:962,0
DA:964,0
DA:965,0
DA:966,0
DA:967,0
DA:969,0
DA:970,0
DA:972,0
DA:974,0
DA:976,0
DA:977,0
DA:980,0
DA:981,0
DA:983,0
DA:985,0
DA:987,0
DA:988,0
DA:991,0
DA:992,0
DA:994,0
DA:996,0
DA:998,0
DA:999,0
DA:1002,0
DA:1003,0
DA:1005,0
DA:1007,0
DA:1008,0
DA:1009,0
DA:1012,0
DA:1014,0
DA:1016,0
DA:1017,0
DA:1020,0
DA:1021,0
DA:1023,0
DA:1025,0
DA:1028,0
DA:1030,0
DA:1032,0
DA:1033,0
DA:1036,0
DA:1038,0
DA:1039,0
DA:1041,0
DA:1043,0
DA:1045,0
DA:1047,0
DA:1050,0
DA:1051,0
DA:1053,0
DA:1055,0
DA:1057,0
DA:1058,0
DA:1060,0
DA:1062,0
DA:1063,0
DA:1066,0
DA:1067,0
DA:1070,0
DA:1072,0
DA:1074,0
DA:1075,0
DA:1078,0
DA:1079,0
DA:1080,0
DA:1082,0
DA:1083,0
DA:1084,0
DA:1087,0
DA:1090,0
DA:1091,0
DA:1093,0
DA:1095,0
DA:1097,0
DA:1098,0
DA:1101,0
DA:1102,0
DA:1103,0
DA:1105,0
DA:1106,0
DA:1107,0
DA:1110,0
DA:1113,0
DA:1114,0
DA:1116,0
DA:1118,0
DA:1119,0
DA:1120,0
DA:1122,0
DA:1123,0
DA:1124,0
DA:1127,0
DA:1130,0
DA:1131,0
DA:1133,0
DA:1135,0
DA:1137,0
DA:1138,0
DA:1141,0
DA:1143,0
DA:1145,0
DA:1146,0
DA:1147,0
DA:1148,0
DA:1150,0
DA:1151,0
DA:1153,0
DA:1155,0
DA:1157,0
DA:1158,0
DA:1161,0
DA:1163,0
DA:1165,0
DA:1167,0
DA:1171,0
DA:1172,0
DA:1174,0
DA:1177,0
DA:1179,0
DA:1180,0
DA:1184,0
DA:1188,0
DA:1189,0
DA:1191,0
DA:1193,0
DA:1196,6
DA:1198,6
DA:1199,6
DA:1200,6
DA:1201,6
DA:1203,14
DA:1205,14
DA:1206,14
DA:1207,12
DA:1208,10
DA:1209,8
DA:1210,8
DA:1211,14
DA:1213,52
DA:1215,52
DA:1216,168
DA:1218,116
DA:1219,116
DA:1221,62
DA:1222,62
DA:1223,54
DA:1225,24
DA:1226,24
DA:1227,116
DA:1228,116
DA:1229,52
DA:1232,10
DA:1234,10
DA:1235,10
DA:1236,10
DA:1237,10
DA:1238,10
DA:1240,18
DA:1242,18
DA:1243,18
DA:1244,74
DA:1246,60
DA:1247,60
DA:1249,60
DA:1250,56
DA:1251,60
DA:1253,14
DA:1254,4
DA:1256,14
DA:1258,14
DA:1259,14
DA:1260,14
DA:1261,54
DA:1263,44
DA:1264,44
DA:1266,44
DA:1267,44
DA:1269,40
DA:1270,44
DA:1272,10
DA:1273,14
DA:1275,10
DA:1277,10
DA:1278,10
DA:1279,10
DA:1280,10
DA:1281,10
DA:1282,10
DA:1283,10
DA:1284,10
DA:1286,2
DA:1289,2
DA:1292,40
DA:1294,40
DA:1298,40
DA:1299,40
DA:1301,0
DA:1303,0
DA:1304,0
DA:1306,0
DA:1308,0
DA:1309,0
DA:1311,0
DA:1313,0
DA:1315,0
DA:1316,0
DA:1319,0
DA:1320,0
DA:1322,0
DA:1323,0
DA:1325,0
DA:1326,0
DA:1328,0
DA:1330,0
DA:1331,0
DA:1333,0
DA:1334,0
DA:1336,0
DA:1338,0
DA:1340,0
DA:1341,0
DA:1344,0
DA:1346,0
DA:1348,0
DA:1350,0
DA:1351,0
DA:1352,0
DA:1353,0
DA:1355,0
DA:1356,0
LF:749
LH:211
end_of_record
TN:
SF:/Users/trungpham/Documents/splashkit-core/coresdk/src/coresdk/point_geometry.cpp
FNL:0,113,120
FNA:0,102,_ZN13splashkit_lib18point_in_rectangleERKNS_8point_2dERKNS_9rectangleE
FNL:1,122,124
FNA:1,2,_ZN13splashkit_lib18point_in_rectangleEdddddd
FNL:2,127,131
FNA:2,28,_ZN13splashkit_lib13point_in_quadERKNS_8point_2dERKNS_4quadE
FNL:3,134,136
FNA:3,120,_ZN13splashkit_lib10same_pointERKNS_8point_2dES2_
FNL:4,139,141
FNA:4,32,_ZN13splashkit_lib15point_in_circleERKNS_8point_2dERKNS_6circleE
FNL:5,144,146
FNA:5,2,_ZN13splashkit_lib15point_in_circleEddddd
FNL:6,149,151
FNA:6,108,_ZN13splashkit_lib13point_on_lineERKNS_8point_2dERKNS_4lineE
FNL:7,154,154
FNA:7,122,_ZN13splashkit_lib13point_on_lineERKNS_8point_2dERKNS_4lineEf
FNL:8,156,163
FNA:8,14,_ZZN13splashkit_lib13point_on_lineERKNS_8point_2dERKNS_4lineEfENK3$_0clEv
FNL:9,166,206
FNA:9,28,_ZZN13splashkit_lib13point_on_lineERKNS_8point_2dERKNS_4lineEfENK3$_1clEv
FNL:10,211,235
FNA:10,6,_ZN13splashkit_lib17point_point_angleERKNS_8point_2dES2_
FNL:11,240,243
FNA:11,150,_ZN13splashkit_lib20point_point_distanceERKNS_8point_2dES2_
FNL:12,246,248
FNA:12,8,_ZN13splashkit_lib19point_line_distanceERKNS_8point_2dERKNS_4lineE
FNL:13,27,32
FNA:13,1624,_ZN13splashkit_lib8point_atEdd
FNL:14,35,37
FNA:14,24,_ZN13splashkit_lib15point_at_originEv
FNL:15,40,42
FNA:15,50,_ZN13splashkit_lib15point_offset_byERKNS_8point_2dERKNS_9vector_2dE
FNL:16,45,47
FNA:16,2,_ZN13splashkit_lib24point_offset_from_originERKNS_9vector_2dE
FNL:17,50,53
FNA:17,12,_ZN13splashkit_lib15point_to_stringERKNS_8point_2dE
FNL:18,55,57
FNA:18,0,_ZN13splashkit_lib19random_screen_pointEv
FNL:19,60,65
FNA:19,0,_ZN13splashkit_lib19random_window_pointEPNS_12_window_dataE
FNL:20,68,73
FNA:20,2,_ZN13splashkit_lib19random_bitmap_pointEPNS_12_bitmap_dataE
FNL:21,76,111
FNA:21,188,_ZN13splashkit_lib17point_in_triangleERKNS_8point_2dERKNS_8triangleE
FNF:22
FNH:20
DA:27,1624
DA:30,1624
DA:31,1624
DA:32,1624
DA:35,24
DA:37,24
DA:40,50
DA:42,50
DA:45,2
DA:47,2
DA:50,12
DA:52,12
DA:53,0
DA:55,0
DA:57,0
DA:60,0
DA:63,0
DA:64,0
DA:65,0
DA:68,2
DA:71,2
DA:72,2
DA:73,2
DA:76,188
DA:84,188
DA:85,188
DA:86,188
DA:87,188
DA:90,188
DA:91,188
DA:92,188
DA:95,188
DA:96,188
DA:97,188
DA:98,188
DA:99,188
DA:102,188
DA:103,0
DA:105,188
DA:106,188
DA:107,188
DA:110,188
DA:111,188
DA:113,102
DA:115,102
DA:116,80
DA:117,52
DA:118,50
DA:119,48
DA:120,102
DA:122,2
DA:124,2
DA:127,28
DA:129,28
DA:130,28
DA:131,2
DA:134,120
DA:136,120
DA:139,32
DA:141,32
DA:144,2
DA:146,2
DA:149,108
DA:151,108
DA:154,122
DA:156,136
DA:160,14
DA:161,14
DA:163,14
DA:166,150
DA:170,28
DA:171,28
DA:173,28
DA:179,122
DA:180,122
DA:182,0
DA:186,122
DA:188,14
DA:190,108
DA:192,28
DA:195,80
DA:196,80
DA:198,80
DA:199,80
DA:201,152
DA:202,72
DA:203,64
DA:204,64
DA:205,64
DA:206,122
DA:211,6
DA:215,6
DA:216,6
DA:217,4
DA:218,4
DA:221,2
DA:222,2
DA:223,2
DA:224,2
DA:225,2
DA:227,2
DA:229,0
DA:230,0
DA:231,0
DA:233,2
DA:235,6
DA:240,150
DA:242,150
DA:243,150
DA:246,8
DA:248,8
LF:111
LH:99
end_of_record
TN:
SF:/Users/trungpham/Documents/splashkit-core/coresdk/src/coresdk/quad_geometry.cpp
FNL:0,102,135
FNA:0,0,_ZN13splashkit_lib21quad_ray_intersectionERKNS_8point_2dERKNS_9vector_2dERKNS_4quadERS0_Rd
FNL:1,137,154
FNA:1,16,_ZN13splashkit_lib15quads_intersectERKNS_4quadES2_
FNL:2,15,29
FNA:2,62,_ZN13splashkit_lib9quad_fromEdddddddd
FNL:3,32,40
FNA:3,60,_ZN13splashkit_lib9quad_fromERKNS_9rectangleE
FNL:4,43,52
FNA:4,16,_ZN13splashkit_lib9quad_fromERKNS_8point_2dES2_S2_S2_
FNL:5,55,59
FNA:5,30,_ZN13splashkit_lib9quad_fromERKNS_9rectangleERKNS_9matrix_2dE
FNL:6,62,74
FNA:6,0,_ZN13splashkit_lib9quad_fromERKNS_8point_2dES2_d
FNL:7,77,83
FNA:7,8,_ZN13splashkit_lib14set_quad_pointERNS_4quadEiRKNS_8point_2dE
FNL:8,85,93
FNA:8,50,_ZN13splashkit_lib14triangles_fromERKNS_4quadE
FNL:9,95,99
FNA:9,0,_ZN13splashkit_lib21quad_ray_intersectionERKNS_8point_2dERKNS_9vector_2dERKNS_4quadE
FNF:10
FNH:7
DA:15,62
DA:21,62
DA:22,62
DA:23,62
DA:24,62
DA:25,62
DA:26,62
DA:27,62
DA:28,62
DA:29,62
DA:32,60
DA:35,60
DA:36,60
DA:37,60
DA:38,60
DA:39,60
DA:40,60
DA:43,16
DA:47,16
DA:48,16
DA:49,16
DA:50,16
DA:52,16
DA:55,30
DA:57,30
DA:58,30
DA:59,30
DA:62,0
DA:64,0
DA:65,0
DA:66,0
DA:69,0
DA:70,0
DA:71,0
DA:72,0
DA:74,0
DA:77,8
DA:79,8
DA:81,8
DA:82,8
DA:83,8
DA:85,50
DA:87,50
DA:89,50
DA:90,50
DA:92,50
DA:93,50
DA:95,0
DA:99,0
DA:102,0
DA:104,0
DA:107,0
DA:109,0
DA:112,0
DA:114,0
DA:115,0
DA:117,0
DA:121,0
DA:123,0
DA:124,0
DA:126,0
DA:127,0
DA:128,0
DA:129,0
DA:130,0
DA:131,0
DA:132,0
DA:134,0
DA:135,0
DA:137,16
DA:139,16
DA:140,16
DA:142,20
DA:144,26
DA:146,22
DA:148,14
DA:153,2
DA:154,16
LF:78
LH:47
end_of_record
TN:
SF:/Users/trungpham/Documents/splashkit-core/coresdk/src/coresdk/random.cpp
FNL:0,20,22
FNA:0,6,_ZN13splashkit_lib3rndEv
FNL:1,25,36
FNA:1,14,_ZN13splashkit_lib3rndEi
FNL:2,38,56
FNA:2,12,_ZN13splashkit_lib3rndEii
FNF:3
FNH:3
DA:20,6
DA:22,6
DA:25,14
DA:27,14
DA:29,10
DA:31,2
DA:32,2
DA:33,2
DA:35,10
DA:36,14
DA:38,12
DA:40,12
DA:42,2
DA:43,2
DA:46,10
DA:48,8
DA:50,0
DA:51,0
DA:52,0
DA:54,8
DA:55,8
DA:56,12
LF:22
LH:19
end_of_record
TN:
SF:/Users/trungpham/Documents/splashkit-core/coresdk/src/coresdk/rectangle_drawing.cpp
FNL:0,102,105
FNA:0,0,_ZN13splashkit_lib14fill_rectangleENS_5colorERKNS_9rectangleE
FNL:1,107,110
FNA:1,0,_ZN13splashkit_lib9draw_quadENS_5colorERKNS_4quadE
FNL:2,112,129
FNA:2,0,_ZN13splashkit_lib9draw_quadENS_5colorERKNS_4quadERKNS_15drawing_optionsE
FNL:3,131,134
FNA:3,0,_ZN13splashkit_lib9fill_quadENS_5colorERKNS_4quadE
FNL:4,136,153
FNA:4,0,_ZN13splashkit_lib9fill_quadENS_5colorERKNS_4quadERKNS_15drawing_optionsE
FNL:5,155,158
FNA:5,0,_ZN13splashkit_lib24draw_rectangle_on_windowEPNS_12_window_dataENS_5colorEddddNS_15drawing_optionsE
FNL:6,160,163
FNA:6,0,_ZN13splashkit_lib24draw_rectangle_on_windowEPNS_12_window_dataENS_5colorEdddd
FNL:7,165,168
FNA:7,0,_ZN13splashkit_lib24draw_rectangle_on_windowEPNS_12_window_dataENS_5colorERKNS_9rectangleERKNS_15drawing_optionsE
FNL:8,170,173
FNA:8,0,_ZN13splashkit_lib24draw_rectangle_on_windowEPNS_12_window_dataENS_5colorERKNS_9rectangleE
FNL:9,175,178
FNA:9,0,_ZN13splashkit_lib24fill_rectangle_on_windowEPNS_12_window_dataENS_5colorEddddRKNS_15drawing_optionsE
FNL:10,180,183
FNA:10,0,_ZN13splashkit_lib24fill_rectangle_on_windowEPNS_12_window_dataENS_5colorEdddd
FNL:11,185,188
FNA:11,0,_ZN13splashkit_lib24fill_rectangle_on_windowEPNS_12_window_dataENS_5colorERKNS_9rectangleERKNS_15drawing_optionsE
FNL:12,190,193
FNA:12,0,_ZN13splashkit_lib24fill_rectangle_on_windowEPNS_12_window_dataENS_5colorERKNS_9rectangleE
FNL:13,195,198
FNA:13,0,_ZN13splashkit_lib19draw_quad_on_windowEPNS_12_window_dataENS_5colorERKNS_4quadE
FNL:14,200,203
FNA:14,0,_ZN13splashkit_lib19draw_quad_on_windowEPNS_12_window_dataENS_5colorERKNS_4quadERKNS_15drawing_optionsE
FNL:15,205,208
FNA:15,0,_ZN13splashkit_lib19fill_quad_on_windowEPNS_12_window_dataENS_5colorERKNS_4quadE
FNL:16,210,213
FNA:16,0,_ZN13splashkit_lib19fill_quad_on_windowEPNS_12_window_dataENS_5colorERKNS_4quadERKNS_15drawing_optionsE
FNL:17,215,218
FNA:17,0,_ZN13splashkit_lib24draw_rectangle_on_bitmapEPNS_12_bitmap_dataENS_5colorEddddNS_15drawing_optionsE
FNL:18,220,223
FNA:18,0,_ZN13splashkit_lib24draw_rectangle_on_bitmapEPNS_12_bitmap_dataENS_5colorEdddd
FNL:19,225,228
FNA:19,0,_ZN13splashkit_lib24draw_rectangle_on_bitmapEPNS_12_bitmap_dataENS_5colorERKNS_9rectangleERKNS_15drawing_optionsE
FNL:20,23,48
FNA:20,0,_ZN13splashkit_lib14draw_rectangleENS_5colorEddddRKNS_15drawing_optionsE
FNL:21,230,233
FNA:21,0,_ZN13splashkit_lib24draw_rectangle_on_bitmapEPNS_12_bitmap_dataENS_5colorERKNS_9rectangleE
FNL:22,235,238
FNA:22,0,_ZN13splashkit_lib24fill_rectangle_on_bitmapEPNS_12_bitmap_dataENS_5colorEddddRKNS_15drawing_optionsE
FNL:23,240,243
FNA:23,0,_ZN13splashkit_lib24fill_rectangle_on_bitmapEPNS_12_bitmap_dataENS_5colorEdddd
FNL:24,245,248
FNA:24,0,_ZN13splashkit_lib24fill_rectangle_on_bitmapEPNS_12_bitmap_dataENS_5colorERKNS_9rectangleERKNS_15drawing_optionsE
FNL:25,250,253
FNA:25,0,_ZN13splashkit_lib24fill_rectangle_on_bitmapEPNS_12_bitmap_dataENS_5colorERKNS_9rectangleE
FNL:26,255,258
FNA:26,0,_ZN13splashkit_lib19draw_quad_on_bitmapEPNS_12_bitmap_dataENS_5colorERKNS_4quadE
FNL:27,260,263
FNA:27,0,_ZN13splashkit_lib19draw_quad_on_bitmapEPNS_12_bitmap_dataENS_5colorERKNS_4quadERKNS_15drawing_optionsE
FNL:28,265,268
FNA:28,0,_ZN13splashkit_lib19fill_quad_on_bitmapEPNS_12_bitmap_dataENS_5colorERKNS_4quadE
FNL:29,270,273
FNA:29,0,_ZN13splashkit_lib19fill_quad_on_bitmapEPNS_12_bitmap_dataENS_5colorERKNS_4quadERKNS_15drawing_optionsE
FNL:30,50,53
FNA:30,0,_ZN13splashkit_lib14draw_rectangleENS_5colorEdddd
FNL:31,55,58
FNA:31,0,_ZN13splashkit_lib14draw_rectangleENS_5colorERKNS_9rectangleERKNS_15drawing_optionsE
FNL:32,60,63
FNA:32,0,_ZN13splashkit_lib14draw_rectangleENS_5colorERKNS_9rectangleE
FNL:33,65,90
FNA:33,0,_ZN13splashkit_lib14fill_rectangleENS_5colorEddddRKNS_15drawing_optionsE
FNL:34,92,95
FNA:34,0,_ZN13splashkit_lib14fill_rectangleENS_5colorEdddd
FNL:35,97,100
FNA:35,0,_ZN13splashkit_lib14fill_rectangleENS_5colorERKNS_9rectangleERKNS_15drawing_optionsE
FNF:36
FNH:0
DA:23,0
DA:25,0
DA:29,0
DA:31,0
DA:33,0
DA:35,0
DA:36,0
DA:37,0
DA:39,0
DA:41,0
DA:42,0
DA:43,0
DA:45,0
DA:46,0
DA:47,0
DA:48,0
DA:50,0
DA:52,0
DA:53,0
DA:55,0
DA:57,0
DA:58,0
DA:60,0
DA:62,0
DA:63,0
DA:65,0
DA:67,0
DA:71,0
DA:73,0
DA:75,0
DA:77,0
DA:78,0
DA:79,0
DA:81,0
DA:83,0
DA:84,0
DA:85,0
DA:87,0
DA:88,0
DA:89,0
DA:90,0
DA:92,0
DA:94,0
DA:95,0
DA:97,0
DA:99,0
DA:100,0
DA:102,0
DA:104,0
DA:105,0
DA:107,0
DA:109,0
DA:110,0
DA:112,0
DA:116,0
DA:118,0
DA:121,0
DA:123,0
DA:124,0
DA:125,0
DA:126,0
DA:127,0
DA:128,0
DA:129,0
DA:131,0
DA:133,0
DA:134,0
DA:136,0
DA:140,0
DA:142,0
DA:145,0
DA:147,0
DA:148,0
DA:149,0
DA:150,0
DA:151,0
DA:152,0
DA:153,0
DA:155,0
DA:157,0
DA:158,0
DA:160,0
DA:162,0
DA:163,0
DA:165,0
DA:167,0
DA:168,0
DA:170,0
DA:172,0
DA:173,0
DA:175,0
DA:177,0
DA:178,0
DA:180,0
DA:182,0
DA:183,0
DA:185,0
DA:187,0
DA:188,0
DA:190,0
DA:192,0
DA:193,0
DA:195,0
DA:197,0
DA:198,0
DA:200,0
DA:202,0
DA:203,0
DA:205,0
DA:207,0
DA:208,0
DA:210,0
DA:212,0
DA:213,0
DA:215,0
DA:217,0
DA:218,0
DA:220,0
DA:222,0
DA:223,0
DA:225,0
DA:227,0
DA:228,0
DA:230,0
DA:232,0
DA:233,0
DA:235,0
DA:237,0
DA:238,0
DA:240,0
DA:242,0
DA:243,0
DA:245,0
DA:247,0
DA:248,0
DA:250,0
DA:252,0
DA:253,0
DA:255,0
DA:257,0
DA:258,0
DA:260,0
DA:262,0
DA:263,0
DA:265,0
DA:267,0
DA:268,0
DA:270,0
DA:272,0
DA:273,0
LF:150
LH:0
end_of_record
TN:
SF:/Users/trungpham/Documents/splashkit-core/coresdk/src/coresdk/rectangle_geometry.cpp
FNL:0,105,133
FNA:0,26,_ZN13splashkit_lib16rectangle_aroundERKNS_8triangleE
FNL:1,136,143
FNA:1,2,_ZN13splashkit_lib19rectangle_to_stringERKNS_9rectangleE
FNL:2,145,158
FNA:2,84,_ZN13splashkit_lib12intersectionERKNS_9rectangleES2_
FNL:3,160,164
FNA:3,80,_ZN13splashkit_lib20rectangles_intersectERKNS_9rectangleES2_
FNL:4,167,171
FNA:4,448,_ZN13splashkit_lib13rectangle_topERKNS_9rectangleE
FNL:5,173,177
FNA:5,446,_ZN13splashkit_lib16rectangle_bottomERKNS_9rectangleE
FNL:6,179,183
FNA:6,498,_ZN13splashkit_lib14rectangle_leftERKNS_9rectangleE
FNL:7,185,189
FNA:7,476,_ZN13splashkit_lib15rectangle_rightERKNS_9rectangleE
FNL:8,191,207
FNA:8,2,_ZN13splashkit_lib13fix_rectangleERKNS_9rectangleE
FNL:9,20,28
FNA:9,286,_ZN13splashkit_lib14rectangle_fromEdddd
FNL:10,210,225
FNA:10,2,_ZN13splashkit_lib15inset_rectangleERKNS_9rectangleEf
FNL:11,227,231
FNA:11,0,_ZN13splashkit_lib26rectangle_ray_intersectionERKNS_8point_2dERKNS_9vector_2dERKNS_9rectangleE
FNL:12,234,277
FNA:12,0,_ZN13splashkit_lib26rectangle_ray_intersectionERKNS_8point_2dERKNS_9vector_2dERKNS_9rectangleERS0_Rd
FNL:13,279,288
FNA:13,8,_ZN13splashkit_lib26rectangle_circle_intersectERKNS_9rectangleERKNS_6circleE
FNL:14,31,38
FNA:14,2,_ZN13splashkit_lib14rectangle_fromENS_8point_2dES0_
FNL:15,41,43
FNA:15,92,_ZN13splashkit_lib14rectangle_fromENS_8point_2dEdd
FNL:16,46,51
FNA:16,2,_ZN13splashkit_lib19rectangle_offset_byERKNS_9rectangleERKNS_9vector_2dE
FNL:17,54,59
FNA:17,2,_ZN13splashkit_lib16rectangle_centerERKNS_9rectangleE
FNL:18,62,69
FNA:18,68,_ZN13splashkit_lib16rectangle_aroundERKNS_4lineE
FNL:19,72,92
FNA:19,2,_ZN13splashkit_lib16rectangle_aroundERKNS_4quadE
FNL:20,95,102
FNA:20,2,_ZN13splashkit_lib16rectangle_aroundERKNS_6circleE
FNF:21
FNH:19
DA:20,286
DA:23,286
DA:24,286
DA:25,286
DA:26,286
DA:28,286
DA:31,2
DA:34,2
DA:35,2
DA:36,2
DA:37,2
DA:38,2
DA:41,92
DA:43,92
DA:46,2
DA:48,2
DA:49,2
DA:50,2
DA:51,2
DA:54,2
DA:57,2
DA:58,2
DA:59,2
DA:62,68
DA:65,68
DA:66,68
DA:67,68
DA:68,68
DA:69,68
DA:72,2
DA:76,2
DA:77,2
DA:79,8
DA:81,6
DA:82,6
DA:83,6
DA:84,6
DA:85,6
DA:87,2
DA:88,2
DA:89,2
DA:90,2
DA:92,2
DA:95,2
DA:98,2
DA:99,2
DA:100,2
DA:101,2
DA:102,2
DA:105,26
DA:109,26
DA:110,26
DA:112,78
DA:114,52
DA:115,10
DA:116,52
DA:117,34
DA:118,34
DA:120,52
DA:121,4
DA:122,52
DA:123,22
DA:124,22
DA:126,52
DA:128,26
DA:129,26
DA:130,26
DA:131,26
DA:133,26
DA:136,2
DA:138,2
DA:140,2
DA:142,2
DA:143,2
DA:145,84
DA:149,84
DA:150,84
DA:151,84
DA:152,84
DA:154,84
DA:155,12
DA:157,72
DA:158,84
DA:160,80
DA:162,80
DA:164,80
DA:167,448
DA:169,448
DA:170,0
DA:171,448
DA:173,446
DA:175,446
DA:176,0
DA:177,446
DA:179,498
DA:181,498
DA:182,4
DA:183,498
DA:185,476
DA:187,476
DA:188,6
DA:189,476
DA:191,2
DA:193,2
DA:195,2
DA:197,0
DA:198,0
DA:199,0
DA:201,2
DA:203,0
DA:204,0
DA:205,0
DA:207,2
DA:210,2
DA:212,2
DA:214,2
DA:216,2
DA:217,0
DA:219,2
DA:220,2
DA:221,2
DA:222,2
DA:224,2
DA:225,2
DA:227,0
DA:231,0
DA:234,0
DA:236,0
DA:239,0
DA:241,0
DA:244,0
DA:246,0
DA:247,0
DA:248,0
DA:252,0
DA:255,0
DA:256,0
DA:258,0
DA:259,0
DA:262,0
DA:263,0
DA:266,0
DA:268,0
DA:272,0
DA:273,0
DA:274,0
DA:276,0
DA:277,0
DA:279,8
DA:281,8
DA:283,6
DA:286,2
DA:287,2
DA:288,8
LF:154
LH:121
end_of_record
TN:
SF:/Users/trungpham/Documents/splashkit-core/coresdk/src/coresdk/resources.cpp
FNL:0,0,39
FNA:0,4,__cxx_global_var_init
FNA:0,4,__cxx_global_var_init.1
FNL:1,108,146
FNA:1,0,_ZZN13splashkit_lib21_guess_resources_pathEvENK3$_0clEv
FNL:2,148,151
FNA:2,86,_ZN13splashkit_lib17path_to_resourcesEv
FNL:3,154,173
FNA:3,86,_ZN13splashkit_lib17path_to_resourcesENS_13resource_kindE
FNL:4,175,178
FNA:4,86,_ZN13splashkit_lib16path_to_resourceERKNSt3__112basic_stringIcNS0_11char_traitsIcEENS0_9allocatorIcEEEENS_13resource_kindE
FNL:5,180,183
FNA:5,0,_ZN13splashkit_lib22register_free_notifierEPFvPvE
FNL:6,185,191
FNA:6,0,_ZN13splashkit_lib24deregister_free_notifierEPFvPvE
FNL:7,193,199
FNA:7,192,_ZN13splashkit_lib14notify_of_freeEPv
FNL:8,41,46
FNA:8,2,_ZN13splashkit_lib18set_resources_pathERKNSt3__112basic_stringIcNS0_11char_traitsIcEENS0_9allocatorIcEEEE
FNL:9,50,79
FNA:9,2,_ZN13splashkit_lib22_try_set_resource_pathENSt3__112basic_stringIcNS0_11char_traitsIcEENS0_9allocatorIcEEEE
FNL:10,81,105
FNA:10,2,_ZN13splashkit_lib21_guess_resources_pathEv
FNF:11
FNH:8
DA:36,4
DA:39,4
DA:41,2
DA:44,2
DA:45,2
DA:46,2
DA:50,2
DA:52,2
DA:55,2
DA:56,2
DA:58,2
DA:59,2
DA:63,0
DA:64,0
DA:66,0
DA:67,0
DA:71,0
DA:72,0
DA:74,0
DA:75,0
DA:78,0
DA:79,2
DA:81,2
DA:83,2
DA:88,2
DA:89,2
DA:90,2
DA:95,2
DA:97,2
DA:101,0
DA:102,0
DA:104,0
DA:105,0
DA:108,0
DA:110,0
DA:111,0
DA:113,0
DA:114,0
DA:117,0
DA:118,0
DA:120,0
DA:122,0
DA:123,0
DA:125,0
DA:143,0
DA:144,0
DA:146,2
DA:148,86
DA:150,86
DA:151,86
DA:154,86
DA:156,86
DA:158,86
DA:160,26
DA:161,8
DA:162,6
DA:163,36
DA:164,4
DA:165,2
DA:166,4
DA:167,0
DA:168,0
DA:170,0
DA:171,0
DA:173,86
DA:175,86
DA:177,86
DA:178,0
DA:180,0
DA:182,0
DA:183,0
DA:185,0
DA:187,0
DA:189,0
DA:190,0
DA:191,0
DA:193,192
DA:195,192
DA:197,0
DA:199,192
LF:80
LH:40
end_of_record
TN:
SF:/Users/trungpham/Documents/splashkit-core/coresdk/src/coresdk/sound.cpp
FNL:0,0,21
FNA:0,4,__cxx_global_var_init
FNL:1,104,119
FNA:1,6,_ZN13splashkit_lib17free_sound_effectEPNS_11_sound_dataE
FNL:2,121,124
FNA:2,2,_ZN13splashkit_lib22free_all_sound_effectsEv
FNL:3,126,128
FNA:3,6,_ZN13splashkit_lib18sound_effect_validEPNS_11_sound_dataE
FNL:4,131,154
FNA:4,2,_ZN13splashkit_lib17play_sound_effectEPNS_11_sound_dataEid
FNL:5,156,159
FNA:5,2,_ZN13splashkit_lib17play_sound_effectEPNS_11_sound_dataE
FNL:6,161,164
FNA:6,0,_ZN13splashkit_lib17play_sound_effectEPNS_11_sound_dataEi
FNL:7,166,169
FNA:7,0,_ZN13splashkit_lib17play_sound_effectEPNS_11_sound_dataEd
FNL:8,171,174
FNA:8,0,_ZN13splashkit_lib17play_sound_effectERKNSt3__112basic_stringIcNS0_11char_traitsIcEENS0_9allocatorIcEEEEid
FNL:9,176,179
FNA:9,0,_ZN13splashkit_lib17play_sound_effectERKNSt3__112basic_stringIcNS0_11char_traitsIcEENS0_9allocatorIcEEEEi
FNL:10,181,184
FNA:10,0,_ZN13splashkit_lib17play_sound_effectERKNSt3__112basic_stringIcNS0_11char_traitsIcEENS0_9allocatorIcEEEE
FNL:11,186,189
FNA:11,0,_ZN13splashkit_lib17play_sound_effectERKNSt3__112basic_stringIcNS0_11char_traitsIcEENS0_9allocatorIcEEEEd
FNL:12,191,196
FNA:12,6,_ZN13splashkit_lib20sound_effect_playingEPNS_11_sound_dataE
FNL:13,198,200
FNA:13,0,_ZN13splashkit_lib20sound_effect_playingERKNSt3__112basic_stringIcNS0_11char_traitsIcEENS0_9allocatorIcEEEE
FNL:14,203,207
FNA:14,2,_ZN13splashkit_lib17stop_sound_effectEPNS_11_sound_dataE
FNL:15,209,212
FNA:15,0,_ZN13splashkit_lib17stop_sound_effectERKNSt3__112basic_stringIcNS0_11char_traitsIcEENS0_9allocatorIcEEEE
FNL:16,214,218
FNA:16,0,_ZN13splashkit_lib21fade_sound_effect_outEPNS_11_sound_dataEi
FNL:17,220,223
FNA:17,0,_ZN13splashkit_lib26fade_all_sound_effects_outEi
FNL:18,23
FNA:18,12,_ZN13splashkit_lib11_sound_dataC1Ev
FNA:18,12,_ZN13splashkit_lib11_sound_dataC2Ev
FNA:18,6,_ZN13splashkit_lib11_sound_dataD1Ev
FNA:18,6,_ZN13splashkit_lib11_sound_dataD2Ev
FNL:19,31,33
FNA:19,78,_ZN13splashkit_lib16has_sound_effectERKNSt3__112basic_stringIcNS0_11char_traitsIcEENS0_9allocatorIcEEEE
FNL:20,36,48
FNA:20,24,_ZN13splashkit_lib18sound_effect_namedERKNSt3__112basic_stringIcNS0_11char_traitsIcEENS0_9allocatorIcEEEE
FNL:21,50,54
FNA:21,6,_ZN13splashkit_lib17sound_effect_nameEPNS_11_sound_dataE
FNL:22,56,60
FNA:22,6,_ZN13splashkit_lib21sound_effect_filenameEPNS_11_sound_dataE
FNL:23,62,102
FNA:23,14,_ZN13splashkit_lib17load_sound_effectERKNSt3__112basic_stringIcNS0_11char_traitsIcEENS0_9allocatorIcEEEES8_
FNF:24
FNH:14
DA:21,4
DA:31,78
DA:33,78
DA:36,24
DA:38,24
DA:39,24
DA:42,0
DA:44,0
DA:45,0
DA:46,0
DA:47,0
DA:48,24
DA:50,6
DA:52,6
DA:53,6
DA:54,6
DA:56,6
DA:58,6
DA:59,6
DA:60,6
DA:62,14
DA:64,14
DA:66,0
DA:67,0
DA:69,14
DA:71,14
DA:73,14
DA:75,14
DA:77,14
DA:79,2
DA:80,2
DA:82,12
DA:84,12
DA:86,12
DA:87,12
DA:88,12
DA:89,12
DA:92,12
DA:94,0
DA:95,0
DA:96,0
DA:97,0
DA:100,12
DA:101,12
DA:102,14
DA:104,6
DA:106,6
DA:108,6
DA:110,6
DA:111,6
DA:112,6
DA:113,6
DA:114,6
DA:117,0
DA:119,6
DA:121,2
DA:123,6
DA:124,2
DA:126,6
DA:128,6
DA:131,2
DA:133,2
DA:135,2
DA:137,0
DA:138,0
DA:144,2
DA:145,2
DA:146,2
DA:149,2
DA:150,2
DA:153,2
DA:154,2
DA:156,2
DA:158,2
DA:159,2
DA:161,0
DA:163,0
DA:164,0
DA:166,0
DA:168,0
DA:169,0
DA:171,0
DA:173,0
DA:174,0
DA:176,0
DA:178,0
DA:179,0
DA:181,0
DA:183,0
DA:184,0
DA:186,0
DA:188,0
DA:189,0
DA:191,6
DA:193,6
DA:195,6
DA:196,6
DA:198,0
DA:200,0
DA:203,2
DA:205,2
DA:206,2
DA:207,2
DA:209,0
DA:211,0
DA:212,0
DA:214,0
DA:216,0
DA:217,0
DA:218,0
DA:220,0
DA:222,0
DA:223,0
LF:113
LH:69
end_of_record
TN:
SF:/Users/trungpham/Documents/splashkit-core/coresdk/src/coresdk/sprites.cpp
FNL:0,0,40
FNA:0,4,__cxx_global_var_init
FNA:0,4,__cxx_global_var_init.1
FNA:0,4,__cxx_global_var_init.2
FNA:0,4,__cxx_global_var_init.3
FNL:1,101,121
FNA:1,12,_ZN13splashkit_lib18sprite_raise_eventEPNS_12_sprite_dataENS_17sprite_event_kindE
FNL:2,1013,1029
FNA:2,4,_ZN13splashkit_lib14move_sprite_toEPNS_12_sprite_dataEdd
FNL:3,1031,1034
FNA:3,2,_ZN13splashkit_lib11move_spriteEPNS_12_sprite_dataE
FNL:4,1036,1040
FNA:4,22,_ZN13splashkit_lib11move_spriteEPNS_12_sprite_dataEf
FNL:5,1042,1051
FNA:5,6,_ZN13splashkit_lib15sprite_velocityEPNS_12_sprite_dataE
FNL:6,1053,1062
FNA:6,12,_ZN13splashkit_lib19sprite_set_velocityEPNS_12_sprite_dataERKNS_9vector_2dE
FNL:7,1064,1073
FNA:7,2,_ZN13splashkit_lib22sprite_add_to_velocityEPNS_12_sprite_dataERKNS_9vector_2dE
FNL:8,1075,1084
FNA:8,2,_ZN13splashkit_lib12sprite_set_xEPNS_12_sprite_dataEd
FNL:9,1086,1095
FNA:9,58,_ZN13splashkit_lib8sprite_xEPNS_12_sprite_dataE
FNL:10,1097,1106
FNA:10,2,_ZN13splashkit_lib12sprite_set_yEPNS_12_sprite_dataEd
FNL:11,1108,1117
FNA:11,58,_ZN13splashkit_lib8sprite_yEPNS_12_sprite_dataE
FNL:12,1119,1130
FNA:12,12,_ZN13splashkit_lib15sprite_positionEPNS_12_sprite_dataE
FNL:13,1132,1142
FNA:13,64,_ZN13splashkit_lib19sprite_set_positionEPNS_12_sprite_dataERKNS_8point_2dE
FNL:14,1144,1154
FNA:14,22,_ZN13splashkit_lib13sprite_set_dxEPNS_12_sprite_dataEd
FNL:15,1156,1168
FNA:15,38,_ZN13splashkit_lib9sprite_dxEPNS_12_sprite_dataE
FNL:16,1170,1180
FNA:16,6,_ZN13splashkit_lib13sprite_set_dyEPNS_12_sprite_dataEd
FNL:17,1182,1193
FNA:17,6,_ZN13splashkit_lib9sprite_dyEPNS_12_sprite_dataE
FNL:18,1195,1201
FNA:18,10,_ZN13splashkit_lib12sprite_speedEPNS_12_sprite_dataE
FNL:19,1203,1210
FNA:19,8,_ZN13splashkit_lib16sprite_set_speedEPNS_12_sprite_dataEd
FNL:20,1212,1218
FNA:20,18,_ZN13splashkit_lib14sprite_headingEPNS_12_sprite_dataE
FNL:21,1220,1224
FNA:21,16,_ZN13splashkit_lib18sprite_set_headingEPNS_12_sprite_dataEf
FNL:22,1226,1232
FNA:22,0,_ZN13splashkit_lib29sprite_move_from_anchor_pointEPNS_12_sprite_dataE
FNL:23,1234,1240
FNA:23,56,_ZN13splashkit_lib33sprite_set_move_from_anchor_pointEPNS_12_sprite_dataEb
FNL:24,1242,1246
FNA:24,0,_ZN13splashkit_lib27sprite_draw_at_anchor_pointEPNS_12_sprite_dataE
FNL:25,1248,1252
FNA:25,0,_ZN13splashkit_lib31sprite_set_draw_at_anchor_pointEPNS_12_sprite_dataEb
FNL:26,1254,1267
FNA:26,0,_ZN13splashkit_lib14sprite_move_toEPNS_12_sprite_dataERKNS_8point_2dEf
FNL:27,1269,1294
FNA:27,32,_ZN13splashkit_lib22sprite_location_matrixEPNS_12_sprite_dataE
FNL:28,127,129
FNA:28,2,_ZN13splashkit_lib14vector_from_toEPNS_12_sprite_dataES1_
FNL:29,1300,1312
FNA:29,48,_ZN13splashkit_lib11sprite_massEPNS_12_sprite_dataE
FNL:30,1314,1318
FNA:30,32,_ZN13splashkit_lib15sprite_set_massEPNS_12_sprite_dataEf
FNL:31,132,134
FNA:31,2,_ZN13splashkit_lib34vector_from_center_sprite_to_pointEPNS_12_sprite_dataERKNS_8point_2dE
FNL:32,1320,1332
FNA:32,152,_ZN13splashkit_lib15sprite_rotationEPNS_12_sprite_dataE
FNL:33,1334,1354
FNA:33,12,_ZN13splashkit_lib19sprite_set_rotationEPNS_12_sprite_dataEf
FNL:34,1356,1362
FNA:34,130,_ZN13splashkit_lib12sprite_scaleEPNS_12_sprite_dataE
FNL:35,1364,1370
FNA:35,10,_ZN13splashkit_lib16sprite_set_scaleEPNS_12_sprite_dataEf
FNL:36,1372,1381
FNA:36,6,_ZN13splashkit_lib18sprite_value_countEPNS_12_sprite_dataE
FNL:37,1383,1392
FNA:37,32,_ZN13splashkit_lib16sprite_has_valueEPNS_12_sprite_dataENSt3__112basic_stringIcNS2_11char_traitsIcEENS2_9allocatorIcEEEE
FNL:38,1394,1401
FNA:38,14,_ZN13splashkit_lib12sprite_valueEPNS_12_sprite_dataERKNSt3__112basic_stringIcNS2_11char_traitsIcEENS2_9allocatorIcEEEE
FNL:39,1403,1406
FNA:39,2,_ZN13splashkit_lib16sprite_add_valueEPNS_12_sprite_dataERKNSt3__112basic_stringIcNS2_11char_traitsIcEENS2_9allocatorIcEEEE
FNL:40,1408,1419
FNA:40,4,_ZN13splashkit_lib16sprite_add_valueEPNS_12_sprite_dataERKNSt3__112basic_stringIcNS2_11char_traitsIcEENS2_9allocatorIcEEEEf
FNL:41,141,143
FNA:41,0,_ZN13splashkit_lib13create_spriteEPNS_12_bitmap_dataE
FNL:42,1421,1430
FNA:42,4,_ZN13splashkit_lib16sprite_set_valueEPNS_12_sprite_dataERKNSt3__112basic_stringIcNS2_11char_traitsIcEENS2_9allocatorIcEEEEf
FNL:43,1436,1439
FNA:43,4,_ZN13splashkit_lib20call_on_sprite_eventEPFvPviE
FNL:44,1441,1444
FNA:44,2,_ZN13splashkit_lib28stop_calling_on_sprite_eventEPFvPviE
FNL:45,1446,1452
FNA:45,4,_ZN13splashkit_lib20sprite_call_on_eventEPNS_12_sprite_dataEPFvPviE
FNL:46,1454,1460
FNA:46,2,_ZN13splashkit_lib28sprite_stop_calling_on_eventEPNS_12_sprite_dataEPFvPviE
FNL:47,146,149
FNA:47,0,_ZN13splashkit_lib13create_spriteERKNSt3__112basic_stringIcNS0_11char_traitsIcEENS0_9allocatorIcEEEE
FNL:48,1468,1471
FNA:48,0,_ZN13splashkit_lib18_update_sprite_pctEPvf
FNL:49,1473,1476
FNA:49,0,_ZN13splashkit_lib12_draw_spriteEPv
FNL:50,1478,1481
FNA:50,0,_ZN13splashkit_lib12_free_spriteEPv
FNL:51,1483,1489
FNA:51,8,_ZN13splashkit_lib21_call_for_all_spritesERNSt3__16vectorIPvNS0_9allocatorIS2_EEEEPFvS2_E
FNL:52,1491,1499
FNA:52,2,_ZN13splashkit_lib21_call_for_all_spritesERNSt3__16vectorIPvNS0_9allocatorIS2_EEEEPFvS2_fEf
FNL:53,1501,1504
FNA:53,0,_ZN13splashkit_lib16draw_all_spritesEv
FNL:54,1506,1509
FNA:54,0,_ZN13splashkit_lib18update_all_spritesEf
FNL:55,151,154
FNA:55,0,_ZN13splashkit_lib13create_spriteERKNSt3__112basic_stringIcNS0_11char_traitsIcEENS0_9allocatorIcEEEES8_
FNL:56,1511,1514
FNA:56,8,_ZN13splashkit_lib20call_for_all_spritesEPFvPvE
FNL:57,1516,1519
FNA:57,2,_ZN13splashkit_lib20call_for_all_spritesEPFvPvfEf
FNL:58,1521,1524
FNA:58,0,_ZN13splashkit_lib18update_all_spritesEv
FNL:59,1526,1528
FNA:59,14,_ZN13splashkit_lib15has_sprite_packERKNSt3__112basic_stringIcNS0_11char_traitsIcEENS0_9allocatorIcEEEE
FNL:60,1532,1542
FNA:60,2,_ZN13splashkit_lib18create_sprite_packERKNSt3__112basic_stringIcNS0_11char_traitsIcEENS0_9allocatorIcEEEE
FNL:61,1544,1546
FNA:61,4,_ZN13splashkit_lib19current_sprite_packEv
FNL:62,1549,1555
FNA:62,8,_ZN13splashkit_lib18select_sprite_packERKNSt3__112basic_stringIcNS0_11char_traitsIcEENS0_9allocatorIcEEEE
FNL:63,1557,1570
FNA:63,0,_ZN13splashkit_lib16free_sprite_packERKNSt3__112basic_stringIcNS0_11char_traitsIcEENS0_9allocatorIcEEEE
FNL:64,156,159
FNA:64,0,_ZN13splashkit_lib13create_spriteEPNS_12_bitmap_dataEPNS_22_animation_script_dataE
FNL:65,1572,1583
FNA:65,0,_ZN13splashkit_lib21free_all_sprite_packsEv
FNL:66,1589,1595
FNA:66,0,_ZN13splashkit_lib16sprite_offscreenEPNS_12_sprite_dataE
FNL:67,1598,1600
FNA:67,0,_ZN13splashkit_lib19sprite_on_screen_atEPNS_12_sprite_dataEdd
FNL:68,1603,1605
FNA:68,0,_ZN13splashkit_lib19sprite_on_screen_atEPNS_12_sprite_dataERKNS_8point_2dE
FNL:69,1608,1610
FNA:69,6,_ZN13splashkit_lib9sprite_atEPNS_12_sprite_dataERKNS_8point_2dE
FNL:70,161,163
FNA:70,140,_ZN13splashkit_lib13create_spriteERKNSt3__112basic_stringIcNS0_11char_traitsIcEENS0_9allocatorIcEEEEPNS_12_bitmap_dataE
FNL:71,1613,1653
FNA:71,60,_ZN13splashkit_lib26sprite_collision_rectangleEPNS_12_sprite_dataE
FNL:72,1655,1661
FNA:72,22,_ZN13splashkit_lib23sprite_collision_circleEPNS_12_sprite_dataE
FNL:73,166,239
FNA:73,142,_ZN13splashkit_lib13create_spriteERKNSt3__112basic_stringIcNS0_11char_traitsIcEENS0_9allocatorIcEEEEPNS_12_bitmap_dataEPNS_22_animation_script_dataE
FNL:74,1663,1669
FNA:74,14,_ZN13splashkit_lib21sprite_collision_kindEPNS_12_sprite_dataE
FNL:75,1671,1674
FNA:75,12,_ZN13splashkit_lib25sprite_set_collision_kindEPNS_12_sprite_dataENS_19collision_test_kindE
FNL:76,1676,1682
FNA:76,44,_ZN13splashkit_lib23sprite_collision_bitmapEPNS_12_sprite_dataE
FNL:77,1684,1687
FNA:77,0,_ZN13splashkit_lib27sprite_set_collision_bitmapEPNS_12_sprite_dataEPNS_12_bitmap_dataE
FNL:78,241,249
FNA:78,2,_ZN13splashkit_lib11sprite_nameEPNS_12_sprite_dataE
FNL:79,255,287
FNA:79,142,_ZN13splashkit_lib11free_spriteEPNS_12_sprite_dataE
FNL:80,289,292
FNA:80,2,_ZN13splashkit_lib16free_all_spritesEv
FNL:81,298,300
FNA:81,276,_ZN13splashkit_lib10has_spriteERKNSt3__112basic_stringIcNS0_11char_traitsIcEENS0_9allocatorIcEEEE
FNL:82,303,309
FNA:82,2,_ZN13splashkit_lib12sprite_namedERKNSt3__112basic_stringIcNS0_11char_traitsIcEENS0_9allocatorIcEEEE
FNL:83,315,335
FNA:83,0,_ZN13splashkit_lib16sprite_add_layerEPNS_12_sprite_dataEPNS_12_bitmap_dataERKNSt3__112basic_stringIcNS4_11char_traitsIcEENS4_9allocatorIcEEEE
FNL:84,337,348
FNA:84,0,_ZN13splashkit_lib16sprite_has_layerEPNS_12_sprite_dataERKNSt3__112basic_stringIcNS2_11char_traitsIcEENS2_9allocatorIcEEEE
FNL:85,350,361
FNA:85,230,_ZN13splashkit_lib16sprite_has_layerEPNS_12_sprite_dataEi
FNL:86,363,373
FNA:86,0,_ZN13splashkit_lib12sprite_layerEPNS_12_sprite_dataERKNSt3__112basic_stringIcNS2_11char_traitsIcEENS2_9allocatorIcEEEE
FNL:87,375,383
FNA:87,2,_ZN13splashkit_lib12sprite_layerEPNS_12_sprite_dataEi
FNL:88,385,391
FNA:88,0,_ZN13splashkit_lib18sprite_layer_indexEPNS_12_sprite_dataERKNSt3__112basic_stringIcNS2_11char_traitsIcEENS2_9allocatorIcEEEE
FNL:89,393,408
FNA:89,0,_ZN13splashkit_lib17sprite_layer_nameEPNS_12_sprite_dataEi
FNL:90,410,416
FNA:90,0,_ZN13splashkit_lib17sprite_show_layerEPNS_12_sprite_dataERKNSt3__112basic_stringIcNS2_11char_traitsIcEENS2_9allocatorIcEEEE
FNL:91,418,431
FNA:91,0,_ZN13splashkit_lib17sprite_show_layerEPNS_12_sprite_dataEi
FNL:92,42,44
FNA:92,294,_ZN13splashkit_lib12current_packEv
FNL:93,433,439
FNA:93,0,_ZN13splashkit_lib17sprite_hide_layerEPNS_12_sprite_dataERKNSt3__112basic_stringIcNS2_11char_traitsIcEENS2_9allocatorIcEEEE
FNL:94,441,447
FNA:94,0,_ZN13splashkit_lib17sprite_hide_layerEPNS_12_sprite_dataEi
FNL:95,449,455
FNA:95,0,_ZN13splashkit_lib27sprite_toggle_layer_visibleEPNS_12_sprite_dataERKNSt3__112basic_stringIcNS2_11char_traitsIcEENS2_9allocatorIcEEEE
FNL:96,457,465
FNA:96,0,_ZN13splashkit_lib27sprite_toggle_layer_visibleEPNS_12_sprite_dataEi
FNL:97,467,475
FNA:97,2,_ZN13splashkit_lib18sprite_layer_countEPNS_12_sprite_dataE
FNL:98,477,485
FNA:98,2,_ZN13splashkit_lib26sprite_visible_layer_countEPNS_12_sprite_dataE
FNL:99,487,496
FNA:99,2,_ZN13splashkit_lib24sprite_has_visible_layerEPNS_12_sprite_dataEi
FNL:100,498,503
FNA:100,2,_ZN13splashkit_lib23sprite_visible_layer_idEPNS_12_sprite_dataEi
FNL:101,505,509
FNA:101,0,_ZN13splashkit_lib19sprite_layer_offsetEPNS_12_sprite_dataERKNSt3__112basic_stringIcNS2_11char_traitsIcEENS2_9allocatorIcEEEE
FNL:102,51
FNA:102,142,_ZN13splashkit_lib12_sprite_dataD1Ev
FNA:102,142,_ZN13splashkit_lib12_sprite_dataD2Ev
FNL:103,511,515
FNA:103,2,_ZN13splashkit_lib19sprite_layer_offsetEPNS_12_sprite_dataEi
FNL:104,517,521
FNA:104,0,_ZN13splashkit_lib23sprite_set_layer_offsetEPNS_12_sprite_dataERKNSt3__112basic_stringIcNS2_11char_traitsIcEENS2_9allocatorIcEEEERKNS_9vector_2dE
FNL:105,523,528
FNA:105,0,_ZN13splashkit_lib23sprite_set_layer_offsetEPNS_12_sprite_dataEiRKNS_9vector_2dE
FNL:106,530,534
FNA:106,0,_ZN13splashkit_lib29sprite_visible_index_of_layerEPNS_12_sprite_dataERKNSt3__112basic_stringIcNS2_11char_traitsIcEENS2_9allocatorIcEEEE
FNL:107,536,542
FNA:107,2,_ZN13splashkit_lib29sprite_visible_index_of_layerEPNS_12_sprite_dataEi
FNL:108,544,548
FNA:108,2,_ZN13splashkit_lib20sprite_visible_layerEPNS_12_sprite_dataEi
FNL:109,550,556
FNA:109,0,_ZN13splashkit_lib25sprite_send_layer_to_backEPNS_12_sprite_dataEi
FNL:110,558,564
FNA:110,0,_ZN13splashkit_lib26sprite_send_layer_backwardEPNS_12_sprite_dataEi
FNL:111,566,572
FNA:111,0,_ZN13splashkit_lib26sprite_bring_layer_forwardEPNS_12_sprite_dataEi
FNL:112,574,580
FNA:112,0,_ZN13splashkit_lib27sprite_bring_layer_to_frontEPNS_12_sprite_dataEi
FNL:113,582,588
FNA:113,0,_ZN13splashkit_lib22sprite_layer_rectangleEPNS_12_sprite_dataERKNSt3__112basic_stringIcNS2_11char_traitsIcEENS2_9allocatorIcEEEE
FNL:114,590,596
FNA:114,2,_ZN13splashkit_lib22sprite_layer_rectangleEPNS_12_sprite_dataEi
FNL:115,598,600
FNA:115,2,_ZN13splashkit_lib13sprite_circleEPNS_12_sprite_dataE
FNL:116,603,607
FNA:116,0,_ZN13splashkit_lib19sprite_layer_circleEPNS_12_sprite_dataERKNSt3__112basic_stringIcNS2_11char_traitsIcEENS2_9allocatorIcEEEE
FNL:117,609,615
FNA:117,4,_ZN13splashkit_lib19sprite_layer_circleEPNS_12_sprite_dataEi
FNL:118,617,623
FNA:118,0,_ZN13splashkit_lib19sprite_layer_heightEPNS_12_sprite_dataERKNSt3__112basic_stringIcNS2_11char_traitsIcEENS2_9allocatorIcEEEE
FNL:119,625,631
FNA:119,106,_ZN13splashkit_lib19sprite_layer_heightEPNS_12_sprite_dataEi
FNL:120,633,639
FNA:120,0,_ZN13splashkit_lib18sprite_layer_widthEPNS_12_sprite_dataERKNSt3__112basic_stringIcNS2_11char_traitsIcEENS2_9allocatorIcEEEE
FNL:121,641,647
FNA:121,110,_ZN13splashkit_lib18sprite_layer_widthEPNS_12_sprite_dataEi
FNL:122,649,651
FNA:122,76,_ZN13splashkit_lib12sprite_widthEPNS_12_sprite_dataE
FNL:123,654,656
FNA:123,72,_ZN13splashkit_lib13sprite_heightEPNS_12_sprite_dataE
FNL:124,659,669
FNA:124,44,_ZN13splashkit_lib19sprite_center_pointEPNS_12_sprite_dataE
FNL:125,675,678
FNA:125,0,_ZN13splashkit_lib23sprite_replay_animationEPNS_12_sprite_dataE
FNL:126,680,690
FNA:126,0,_ZN13splashkit_lib23sprite_replay_animationEPNS_12_sprite_dataEb
FNL:127,692,695
FNA:127,0,_ZN13splashkit_lib22sprite_start_animationEPNS_12_sprite_dataERKNSt3__112basic_stringIcNS2_11char_traitsIcEENS2_9allocatorIcEEEE
FNL:128,697,719
FNA:128,0,_ZN13splashkit_lib22sprite_start_animationEPNS_12_sprite_dataERKNSt3__112basic_stringIcNS2_11char_traitsIcEENS2_9allocatorIcEEEEb
FNL:129,721,724
FNA:129,0,_ZN13splashkit_lib22sprite_start_animationEPNS_12_sprite_dataEi
FNL:130,726,748
FNA:130,0,_ZN13splashkit_lib22sprite_start_animationEPNS_12_sprite_dataEib
FNL:131,750,756
FNA:131,0,_ZN13splashkit_lib21sprite_animation_nameEPNS_12_sprite_dataE
FNL:132,758,761
FNA:132,0,_ZN13splashkit_lib23update_sprite_animationEPNS_12_sprite_dataE
FNL:133,763,766
FNA:133,0,_ZN13splashkit_lib23update_sprite_animationEPNS_12_sprite_dataEb
FNL:134,768,771
FNA:134,0,_ZN13splashkit_lib23update_sprite_animationEPNS_12_sprite_dataEf
FNL:135,773,783
FNA:135,18,_ZN13splashkit_lib23update_sprite_animationEPNS_12_sprite_dataEfb
FNL:136,785,796
FNA:136,0,_ZN13splashkit_lib29sprite_current_cell_rectangleEPNS_12_sprite_dataE
FNL:137,798,807
FNA:137,18,_ZN13splashkit_lib19sprite_current_cellEPNS_12_sprite_dataE
FNL:138,809,813
FNA:138,18,_ZN13splashkit_lib26sprite_animation_has_endedEPNS_12_sprite_dataE
FNL:139,819,822
FNA:139,18,_ZN13splashkit_lib13update_spriteEPNS_12_sprite_dataE
FNL:140,824,827
FNA:140,0,_ZN13splashkit_lib13update_spriteEPNS_12_sprite_dataEb
FNL:141,829,832
FNA:141,0,_ZN13splashkit_lib13update_spriteEPNS_12_sprite_dataEf
FNL:142,834,857
FNA:142,18,_ZN13splashkit_lib13update_spriteEPNS_12_sprite_dataEfb
FNL:143,863,866
FNA:143,0,_ZN13splashkit_lib11draw_spriteEPNS_12_sprite_dataE
FNL:144,868,871
FNA:144,0,_ZN13splashkit_lib11draw_spriteEPNS_12_sprite_dataERKNS_9vector_2dE
FNL:145,873,914
FNA:145,0,_ZN13splashkit_lib11draw_spriteEPNS_12_sprite_dataEdd
FNL:146,89,91
FNA:146,142,_ZN13splashkit_lib12_sprite_dataC1Ev
FNA:146,142,_ZN13splashkit_lib12_sprite_dataC2Ev
FNL:147,916,922
FNA:147,0,_ZN13splashkit_lib23sprite_screen_rectangleEPNS_12_sprite_dataE
FNL:148,924,935
FNA:148,34,_ZN13splashkit_lib19sprite_anchor_pointEPNS_12_sprite_dataE
FNL:149,937,947
FNA:149,2,_ZN13splashkit_lib23sprite_set_anchor_pointEPNS_12_sprite_dataERKNS_8point_2dE
FNL:150,949,955
FNA:150,0,_ZN13splashkit_lib22sprite_anchor_positionEPNS_12_sprite_dataE
FNL:151,962,965
FNA:151,2,_ZN13splashkit_lib11move_spriteEPNS_12_sprite_dataERKNS_9vector_2dE
FNL:152,967,1011
FNA:152,46,_ZN13splashkit_lib11move_spriteEPNS_12_sprite_dataERKNS_9vector_2dEf
FNF:153
FNH:92
DA:33,4
DA:35,4
DA:39,4
DA:40,4
DA:42,294
DA:44,294
DA:89,284
DA:90,142
DA:91,284
DA:101,12
DA:103,12
DA:105,0
DA:106,0
DA:111,16
DA:113,4
DA:114,4
DA:117,24
DA:119,12
DA:120,12
DA:121,12
DA:127,2
DA:129,2
DA:132,2
DA:134,2
DA:141,0
DA:143,0
DA:146,0
DA:148,0
DA:149,0
DA:151,0
DA:153,0
DA:154,0
DA:156,0
DA:158,0
DA:159,0
DA:161,140
DA:163,140
DA:166,142
DA:168,142
DA:172,142
DA:173,142
DA:175,142
DA:177,0
DA:178,0
DA:182,142
DA:184,142
DA:185,142
DA:188,142
DA:189,142
DA:190,142
DA:192,142
DA:193,142
DA:194,142
DA:197,142
DA:200,142
DA:201,142
DA:202,142
DA:205,142
DA:208,142
DA:211,142
DA:212,142
DA:215,142
DA:216,142
DA:219,142
DA:220,142
DA:221,142
DA:222,142
DA:223,142
DA:225,142
DA:227,2
DA:228,2
DA:229,2
DA:231,142
DA:234,142
DA:236,142
DA:238,142
DA:239,142
DA:241,2
DA:243,2
DA:245,0
DA:246,0
DA:248,2
DA:249,2
DA:255,142
DA:257,142
DA:259,0
DA:260,0
DA:264,142
DA:267,142
DA:268,0
DA:271,142
DA:274,142
DA:276,142
DA:278,0
DA:279,0
DA:283,142
DA:285,142
DA:286,142
DA:287,142
DA:289,2
DA:291,8
DA:292,2
DA:298,276
DA:300,276
DA:303,2
DA:305,2
DA:306,2
DA:308,0
DA:309,2
DA:315,0
DA:317,0
DA:319,0
DA:320,0
DA:323,0
DA:325,0
DA:326,0
DA:329,0
DA:330,0
DA:331,0
DA:332,0
DA:334,0
DA:335,0
DA:337,0
DA:339,0
DA:341,0
DA:342,0
DA:346,0
DA:348,0
DA:350,230
DA:352,230
DA:354,0
DA:355,0
DA:359,230
DA:361,230
DA:363,0
DA:365,0
DA:367,0
DA:371,0
DA:373,0
DA:375,2
DA:377,2
DA:379,0
DA:382,2
DA:383,2
DA:385,0
DA:387,0
DA:388,0
DA:390,0
DA:391,0
DA:393,0
DA:395,0
DA:397,0
DA:401,0
DA:402,0
DA:404,0
DA:405,0
DA:406,0
DA:407,0
DA:408,0
DA:410,0
DA:412,0
DA:413,0
DA:415,0
DA:416,0
DA:418,0
DA:420,0
DA:421,0
DA:424,0
DA:425,0
DA:428,0
DA:430,0
DA:431,0
DA:433,0
DA:435,0
DA:436,0
DA:438,0
DA:439,0
DA:441,0
DA:443,0
DA:444,0
DA:446,0
DA:447,0
DA:449,0
DA:451,0
DA:452,0
DA:454,0
DA:455,0
DA:457,0
DA:459,0
DA:461,0
DA:462,0
DA:464,0
DA:465,0
DA:467,2
DA:469,2
DA:471,0
DA:472,0
DA:474,2
DA:475,2
DA:477,2
DA:479,2
DA:481,0
DA:482,0
DA:484,2
DA:485,2
DA:487,2
DA:489,2
DA:491,0
DA:492,0
DA:495,2
DA:496,2
DA:498,2
DA:500,2
DA:502,2
DA:503,2
DA:505,0
DA:507,0
DA:508,0
DA:509,0
DA:511,2
DA:513,2
DA:514,2
DA:515,2
DA:517,0
DA:519,0
DA:520,0
DA:521,0
DA:523,0
DA:525,0
DA:526,0
DA:527,0
DA:528,0
DA:530,0
DA:532,0
DA:533,0
DA:534,0
DA:536,2
DA:538,2
DA:539,0
DA:541,2
DA:542,2
DA:544,2
DA:546,2
DA:547,2
DA:548,2
DA:550,0
DA:552,0
DA:554,0
DA:555,0
DA:556,0
DA:558,0
DA:560,0
DA:562,0
DA:563,0
DA:564,0
DA:566,0
DA:568,0
DA:570,0
DA:571,0
DA:572,0
DA:574,0
DA:576,0
DA:578,0
DA:579,0
DA:580,0
DA:582,0
DA:584,0
DA:585,0
DA:587,0
DA:588,0
DA:590,2
DA:592,2
DA:593,0
DA:595,2
DA:596,2
DA:598,2
DA:600,2
DA:603,0
DA:605,0
DA:606,0
DA:607,0
DA:609,4
DA:611,4
DA:612,0
DA:614,4
DA:615,4
DA:617,0
DA:619,0
DA:620,0
DA:622,0
DA:623,0
DA:625,106
DA:627,106
DA:628,0
DA:630,106
DA:631,106
DA:633,0
DA:635,0
DA:636,0
DA:638,0
DA:639,0
DA:641,110
DA:643,110
DA:644,0
DA:646,110
DA:647,110
DA:649,76
DA:651,76
DA:654,72
DA:656,72
DA:659,44
DA:661,44
DA:663,0
DA:666,44
DA:667,44
DA:668,44
DA:669,44
DA:675,0
DA:677,0
DA:678,0
DA:680,0
DA:682,0
DA:684,0
DA:685,0
DA:688,0
DA:689,0
DA:690,0
DA:692,0
DA:694,0
DA:695,0
DA:697,0
DA:700,0
DA:702,0
DA:703,0
DA:705,0
DA:707,0
DA:708,0
DA:711,0
DA:712,0
DA:714,0
DA:715,0
DA:718,0
DA:719,0
DA:721,0
DA:723,0
DA:724,0
DA:726,0
DA:728,0
DA:730,0
DA:731,0
DA:734,0
DA:735,0
DA:737,0
DA:738,0
DA:741,0
DA:742,0
DA:744,0
DA:746,0
DA:747,0
DA:748,0
DA:750,0
DA:752,0
DA:753,0
DA:755,0
DA:756,0
DA:758,0
DA:760,0
DA:761,0
DA:763,0
DA:765,0
DA:766,0
DA:768,0
DA:770,0
DA:771,0
DA:773,18
DA:775,18
DA:777,0
DA:778,0
DA:781,18
DA:782,18
DA:783,18
DA:785,0
DA:787,0
DA:789,0
DA:790,0
DA:794,0
DA:796,0
DA:798,18
DA:800,18
DA:802,0
DA:803,0
DA:806,18
DA:807,18
DA:809,18
DA:811,18
DA:812,18
DA:813,18
DA:819,18
DA:821,18
DA:822,18
DA:824,0
DA:826,0
DA:827,0
DA:829,0
DA:831,0
DA:832,0
DA:834,18
DA:836,18
DA:838,18
DA:839,18
DA:846,18
DA:848,0
DA:849,0
DA:851,18
DA:853,12
DA:854,12
DA:855,12
DA:856,18
DA:857,18
DA:863,0
DA:865,0
DA:866,0
DA:868,0
DA:870,0
DA:871,0
DA:873,0
DA:875,0
DA:877,0
DA:878,0
DA:881,0
DA:884,0
DA:885,0
DA:886,0
DA:887,0
DA:889,0
DA:891,0
DA:892,0
DA:893,0
DA:895,0
DA:898,0
DA:900,0
DA:901,0
DA:902,0
DA:903,0
DA:904,0
DA:905,0
DA:906,0
DA:908,0
DA:909,0
DA:910,0
DA:911,0
DA:912,0
DA:913,0
DA:914,0
DA:916,0
DA:918,0
DA:919,0
DA:921,0
DA:922,0
DA:924,34
DA:926,34
DA:928,34
DA:932,0
DA:933,0
DA:935,34
DA:937,2
DA:939,2
DA:941,2
DA:942,2
DA:945,0
DA:947,2
DA:949,0
DA:951,0
DA:952,0
DA:953,0
DA:954,0
DA:955,0
DA:962,2
DA:964,2
DA:965,2
DA:967,46
DA:969,46
DA:971,0
DA:972,0
DA:976,46
DA:978,46
DA:980,0
DA:981,0
DA:982,0
DA:985,46
DA:988,46
DA:989,46
DA:991,46
DA:993,0
DA:995,0
DA:997,0
DA:999,0
DA:1000,0
DA:1002,0
DA:1003,0
DA:1005,0
DA:1006,0
DA:1008,0
DA:1009,0
DA:1010,0
DA:1011,46
DA:1013,4
DA:1015,4
DA:1017,0
DA:1018,0
DA:1021,4
DA:1022,4
DA:1024,4
DA:1026,2
DA:1027,2
DA:1028,2
DA:1029,4
DA:1031,2
DA:1033,2
DA:1034,2
DA:1036,22
DA:1038,22
DA:1039,22
DA:1040,22
DA:1042,6
DA:1044,6
DA:1046,0
DA:1047,0
DA:1050,6
DA:1051,6
DA:1053,12
DA:1055,12
DA:1057,0
DA:1058,0
DA:1061,12
DA:1062,12
DA:1064,2
DA:1066,2
DA:1068,0
DA:1069,0
DA:1072,2
DA:1073,2
DA:1075,2
DA:1077,2
DA:1079,0
DA:1080,0
DA:1083,2
DA:1084,2
DA:1086,58
DA:1088,58
DA:1090,0
DA:1091,0
DA:1094,58
DA:1095,58
DA:1097,2
DA:1099,2
DA:1101,0
DA:1102,0
DA:1105,2
DA:1106,2
DA:1108,58
DA:1110,58
DA:1112,0
DA:1113,0
DA:1116,58
DA:1117,58
DA:1119,12
DA:1121,12
DA:1123,0
DA:1124,0
DA:1128,12
DA:1130,12
DA:1132,64
DA:1134,64
DA:1136,64
DA:1137,64
DA:1140,0
DA:1142,64
DA:1144,22
DA:1146,22
DA:1148,22
DA:1149,22
DA:1152,0
DA:1154,22
DA:1156,38
DA:1158,38
DA:1160,0
DA:1161,0
DA:1165,38
DA:1168,38
DA:1170,6
DA:1172,6
DA:1174,6
DA:1175,6
DA:1178,0
DA:1180,6
DA:1182,6
DA:1184,6
DA:1186,0
DA:1187,0
DA:1191,6
DA:1193,6
DA:1195,10
DA:1197,10
DA:1198,0
DA:1200,10
DA:1201,10
DA:1203,8
DA:1205,8
DA:1207,0
DA:1208,0
DA:1209,8
DA:1210,8
DA:1212,18
DA:1214,18
DA:1215,0
DA:1217,18
DA:1218,18
DA:1220,16
DA:1222,16
DA:1223,16
DA:1224,16
DA:1226,0
DA:1228,0
DA:1229,0
DA:1231,0
DA:1232,0
DA:1234,56
DA:1236,56
DA:1238,56
DA:1239,56
DA:1240,56
DA:1242,0
DA:1244,0
DA:1245,0
DA:1246,0
DA:1248,0
DA:1250,0
DA:1251,0
DA:1252,0
DA:1254,0
DA:1256,0
DA:1258,0
DA:1259,0
DA:1262,0
DA:1263,0
DA:1264,0
DA:1265,0
DA:1266,0
DA:1267,0
DA:1269,32
DA:1271,32
DA:1273,32
DA:1275,0
DA:1276,0
DA:1279,32
DA:1280,32
DA:1281,32
DA:1283,32
DA:1285,32
DA:1286,32
DA:1287,32
DA:1289,32
DA:1290,32
DA:1291,32
DA:1293,32
DA:1294,32
DA:1300,48
DA:1302,48
DA:1304,0
DA:1305,0
DA:1309,48
DA:1312,48
DA:1314,32
DA:1316,32
DA:1317,32
DA:1318,32
DA:1320,152
DA:1322,152
DA:1324,0
DA:1325,0
DA:1329,152
DA:1332,152
DA:1334,12
DA:1336,12
DA:1338,12
DA:1340,2
DA:1341,2
DA:1343,12
DA:1345,6
DA:1346,6
DA:1348,12
DA:1349,12
DA:1352,0
DA:1354,12
DA:1356,130
DA:1358,130
DA:1359,0
DA:1361,130
DA:1362,130
DA:1364,10
DA:1366,10
DA:1368,10
DA:1369,10
DA:1370,10
DA:1372,6
DA:1374,6
DA:1376,0
DA:1377,0
DA:1380,6
DA:1381,6
DA:1383,32
DA:1385,32
DA:1387,0
DA:1388,0
DA:1391,32
DA:1392,32
DA:1394,14
DA:1396,14
DA:1398,0
DA:1400,14
DA:1401,14
DA:1403,2
DA:1405,2
DA:1406,2
DA:1408,4
DA:1410,4
DA:1412,0
DA:1413,0
DA:1416,4
DA:1418,4
DA:1419,4
DA:1421,4
DA:1423,4
DA:1425,0
DA:1426,0
DA:1429,4
DA:1430,4
DA:1436,4
DA:1438,4
DA:1439,4
DA:1441,2
DA:1443,2
DA:1444,2
DA:1446,4
DA:1448,4
DA:1450,4
DA:1451,4
DA:1452,4
DA:1454,2
DA:1456,2
DA:1458,2
DA:1459,2
DA:1460,2
DA:1468,0
DA:1470,0
DA:1471,0
DA:1473,0
DA:1475,0
DA:1476,0
DA:1478,0
DA:1480,0
DA:1481,0
DA:1483,8
DA:1485,18
DA:1487,10
DA:1489,8
DA:1491,2
DA:1494,2
DA:1495,6
DA:1497,4
DA:1499,2
DA:1501,0
DA:1503,0
DA:1504,0
DA:1506,0
DA:1508,0
DA:1509,0
DA:1511,8
DA:1513,8
DA:1514,8
DA:1516,2
DA:1518,2
DA:1519,2
DA:1521,0
DA:1523,0
DA:1524,0
DA:1526,14
DA:1528,14
DA:1532,2
DA:1534,2
DA:1536,2
DA:1537,2
DA:1540,0
DA:1542,2
DA:1544,4
DA:1546,4
DA:1549,8
DA:1551,8
DA:1552,8
DA:1554,0
DA:1555,8
DA:1557,0
DA:1559,0
DA:1562,0
DA:1563,0
DA:1564,0
DA:1566,0
DA:1567,0
DA:1569,0
DA:1570,0
DA:1572,0
DA:1574,0
DA:1576,0
DA:1578,0
DA:1579,0
DA:1580,0
DA:1582,0
DA:1583,0
DA:1589,0
DA:1591,0
DA:1592,0
DA:1594,0
DA:1595,0
DA:1598,0
DA:1600,0
DA:1603,0
DA:1605,0
DA:1608,6
DA:1610,6
DA:1613,60
DA:1615,60
DA:1616,0
DA:1617,60
DA:1618,60
DA:1621,0
DA:1622,0
DA:1625,0
DA:1626,0
DA:1627,0
DA:1628,0
DA:1630,0
DA:1632,0
DA:1634,0
DA:1635,0
DA:1637,0
DA:1638,0
DA:1639,0
DA:1640,0
DA:1642,0
DA:1644,0
DA:1645,0
DA:1647,0
DA:1648,0
DA:1649,0
DA:1651,0
DA:1653,60
DA:1655,22
DA:1657,22
DA:1658,0
DA:1660,22
DA:1661,22
DA:1663,14
DA:1665,14
DA:1666,0
DA:1668,14
DA:1669,14
DA:1671,12
DA:1673,12
DA:1674,12
DA:1676,44
DA:1678,44
DA:1679,0
DA:1681,44
DA:1682,44
DA:1684,0
DA:1686,0
DA:1687,0
LF:878
LH:427
end_of_record
TN:
SF:/Users/trungpham/Documents/splashkit-core/coresdk/src/coresdk/terminal.cpp
FNL:0,24,28
FNA:0,0,_ZN13splashkit_lib5writeENSt3__112basic_stringIcNS0_11char_traitsIcEENS0_9allocatorIcEEEE
FNL:1,30,33
FNA:1,0,_ZN13splashkit_lib5writeEi
FNL:2,35,38
FNA:2,0,_ZN13splashkit_lib5writeEc
FNL:3,40,43
FNA:3,0,_ZN13splashkit_lib5writeEd
FNL:4,45,49
FNA:4,0,_ZN13splashkit_lib10write_lineEv
FNL:5,51,55
FNA:5,0,_ZN13splashkit_lib10write_lineENSt3__112basic_stringIcNS0_11char_traitsIcEENS0_9allocatorIcEEEE
FNL:6,57,60
FNA:6,0,_ZN13splashkit_lib10write_lineEi
FNL:7,62,65
FNA:7,0,_ZN13splashkit_lib10write_lineEd
FNL:8,67,70
FNA:8,0,_ZN13splashkit_lib10write_lineEc
FNL:9,72,79
FNA:9,0,_ZN13splashkit_lib9read_lineEv
FNL:10,81,88
FNA:10,0,_ZN13splashkit_lib9read_charEv
FNL:11,91,93
FNA:11,0,_ZN13splashkit_lib18terminal_has_inputEv
FNF:12
FNH:0
DA:24,0
DA:26,0
DA:27,0
DA:28,0
DA:30,0
DA:32,0
DA:33,0
DA:35,0
DA:37,0
DA:38,0
DA:40,0
DA:42,0
DA:43,0
DA:45,0
DA:47,0
DA:48,0
DA:49,0
DA:51,0
DA:53,0
DA:54,0
DA:55,0
DA:57,0
DA:59,0
DA:60,0
DA:62,0
DA:64,0
DA:65,0
DA:67,0
DA:69,0
DA:70,0
DA:72,0
DA:74,0
DA:75,0
DA:76,0
DA:77,0
DA:78,0
DA:79,0
DA:81,0
DA:83,0
DA:84,0
DA:85,0
DA:86,0
DA:87,0
DA:88,0
DA:91,0
DA:93,0
LF:46
LH:0
end_of_record
TN:
SF:/Users/trungpham/Documents/splashkit-core/coresdk/src/coresdk/text.cpp
FNL:0,0,22
FNA:0,4,__cxx_global_var_init
FNL:1,108,127
FNA:1,0,_ZN13splashkit_lib14free_all_fontsEv
FNL:2,129,141
FNA:2,0,_ZN13splashkit_lib14set_font_styleEPNS_12sk_font_dataENS_10font_styleE
FNL:3,143,146
FNA:3,0,_ZN13splashkit_lib14set_font_styleERKNSt3__112basic_stringIcNS0_11char_traitsIcEENS0_9allocatorIcEEEENS_10font_styleE
FNL:4,148,160
FNA:4,0,_ZN13splashkit_lib14get_font_styleEPNS_12sk_font_dataE
FNL:5,162,165
FNA:5,0,_ZN13splashkit_lib14get_font_styleERKNSt3__112basic_stringIcNS0_11char_traitsIcEENS0_9allocatorIcEEEE
FNL:6,167,208
FNA:6,2,_ZN13splashkit_lib9load_fontERKNSt3__112basic_stringIcNS0_11char_traitsIcEENS0_9allocatorIcEEEES8_
FNL:7,210,243
FNA:7,0,_ZN13splashkit_lib15get_system_fontEv
FNL:8,24,26
FNA:8,0,_ZN13splashkit_lib8has_fontEPNS_12sk_font_dataE
FNL:9,245,258
FNA:9,0,_ZN13splashkit_lib9draw_textERKNSt3__112basic_stringIcNS0_11char_traitsIcEENS0_9allocatorIcEEEERKNS_5colorEPNS_12sk_font_dataEiddRKNS_15drawing_optionsE
FNL:10,260,263
FNA:10,0,_ZN13splashkit_lib9draw_textERKNSt3__112basic_stringIcNS0_11char_traitsIcEENS0_9allocatorIcEEEERKNS_5colorEPNS_12sk_font_dataEidd
FNL:11,265,268
FNA:11,0,_ZN13splashkit_lib9draw_textERKNSt3__112basic_stringIcNS0_11char_traitsIcEENS0_9allocatorIcEEEERKNS_5colorES8_iddRKNS_15drawing_optionsE
FNL:12,270,273
FNA:12,0,_ZN13splashkit_lib9draw_textERKNSt3__112basic_stringIcNS0_11char_traitsIcEENS0_9allocatorIcEEEERKNS_5colorES8_idd
FNL:13,275,278
FNA:13,0,_ZN13splashkit_lib9draw_textERKNSt3__112basic_stringIcNS0_11char_traitsIcEENS0_9allocatorIcEEEERKNS_5colorEddRKNS_15drawing_optionsE
FNL:14,280,283
FNA:14,0,_ZN13splashkit_lib9draw_textERKNSt3__112basic_stringIcNS0_11char_traitsIcEENS0_9allocatorIcEEEERKNS_5colorEdd
FNL:15,285,288
FNA:15,0,_ZN13splashkit_lib19draw_text_on_windowEPNS_12_window_dataERKNSt3__112basic_stringIcNS2_11char_traitsIcEENS2_9allocatorIcEEEERKNS_5colorEPNS_12sk_font_dataEiddRKNS_15drawing_optionsE
FNL:16,29,33
FNA:16,2,_ZN13splashkit_lib8has_fontENSt3__112basic_stringIcNS0_11char_traitsIcEENS0_9allocatorIcEEEE
FNL:17,290,293
FNA:17,0,_ZN13splashkit_lib19draw_text_on_windowEPNS_12_window_dataERKNSt3__112basic_stringIcNS2_11char_traitsIcEENS2_9allocatorIcEEEERKNS_5colorEPNS_12sk_font_dataEidd
FNL:18,295,298
FNA:18,0,_ZN13splashkit_lib19draw_text_on_windowEPNS_12_window_dataERKNSt3__112basic_stringIcNS2_11char_traitsIcEENS2_9allocatorIcEEEERKNS_5colorESA_iddRKNS_15drawing_optionsE
FNL:19,300,303
FNA:19,0,_ZN13splashkit_lib19draw_text_on_windowEPNS_12_window_dataERKNSt3__112basic_stringIcNS2_11char_traitsIcEENS2_9allocatorIcEEEERKNS_5colorESA_idd
FNL:20,305,308
FNA:20,0,_ZN13splashkit_lib19draw_text_on_windowEPNS_12_window_dataERKNSt3__112basic_stringIcNS2_11char_traitsIcEENS2_9allocatorIcEEEERKNS_5colorEddRKNS_15drawing_optionsE
FNL:21,310,313
FNA:21,0,_ZN13splashkit_lib19draw_text_on_windowEPNS_12_window_dataERKNSt3__112basic_stringIcNS2_11char_traitsIcEENS2_9allocatorIcEEEERKNS_5colorEdd
FNL:22,315,318
FNA:22,0,_ZN13splashkit_lib19draw_text_on_bitmapEPNS_12_bitmap_dataERKNSt3__112basic_stringIcNS2_11char_traitsIcEENS2_9allocatorIcEEEERKNS_5colorEPNS_12sk_font_dataEiddRKNS_15drawing_optionsE
FNL:23,320,323
FNA:23,0,_ZN13splashkit_lib19draw_text_on_bitmapEPNS_12_bitmap_dataERKNSt3__112basic_stringIcNS2_11char_traitsIcEENS2_9allocatorIcEEEERKNS_5colorEPNS_12sk_font_dataEidd
FNL:24,325,328
FNA:24,0,_ZN13splashkit_lib19draw_text_on_bitmapEPNS_12_bitmap_dataERKNSt3__112basic_stringIcNS2_11char_traitsIcEENS2_9allocatorIcEEEERKNS_5colorESA_iddRKNS_15drawing_optionsE
FNL:25,330,333
FNA:25,0,_ZN13splashkit_lib19draw_text_on_bitmapEPNS_12_bitmap_dataERKNSt3__112basic_stringIcNS2_11char_traitsIcEENS2_9allocatorIcEEEERKNS_5colorESA_idd
FNL:26,335,338
FNA:26,0,_ZN13splashkit_lib19draw_text_on_bitmapEPNS_12_bitmap_dataERKNSt3__112basic_stringIcNS2_11char_traitsIcEENS2_9allocatorIcEEEERKNS_5colorEddRKNS_15drawing_optionsE
FNL:27,340,343
FNA:27,0,_ZN13splashkit_lib19draw_text_on_bitmapEPNS_12_bitmap_dataERKNSt3__112basic_stringIcNS2_11char_traitsIcEENS2_9allocatorIcEEEERKNS_5colorEdd
FNL:28,345,356
FNA:28,0,_ZN13splashkit_lib10text_widthERKNSt3__112basic_stringIcNS0_11char_traitsIcEENS0_9allocatorIcEEEEPNS_12sk_font_dataEi
FNL:29,35,47
FNA:29,0,_ZN13splashkit_lib13font_has_sizeEPNS_12sk_font_dataEi
FNL:30,358,361
FNA:30,0,_ZN13splashkit_lib10text_widthERKNSt3__112basic_stringIcNS0_11char_traitsIcEENS0_9allocatorIcEEEES8_i
FNL:31,363,374
FNA:31,0,_ZN13splashkit_lib11text_heightERKNSt3__112basic_stringIcNS0_11char_traitsIcEENS0_9allocatorIcEEEEPNS_12sk_font_dataEi
FNL:32,376,379
FNA:32,0,_ZN13splashkit_lib11text_heightERKNSt3__112basic_stringIcNS0_11char_traitsIcEENS0_9allocatorIcEEEES8_i
FNL:33,49,52
FNA:33,0,_ZN13splashkit_lib13font_has_sizeERKNSt3__112basic_stringIcNS0_11char_traitsIcEENS0_9allocatorIcEEEEi
FNL:34,54,64
FNA:34,0,_ZN13splashkit_lib14font_load_sizeEPNS_12sk_font_dataEi
FNL:35,66,69
FNA:35,0,_ZN13splashkit_lib14font_load_sizeERKNSt3__112basic_stringIcNS0_11char_traitsIcEENS0_9allocatorIcEEEEi
FNL:36,71,85
FNA:36,0,_ZN13splashkit_lib10font_namedENSt3__112basic_stringIcNS0_11char_traitsIcEENS0_9allocatorIcEEEE
FNL:37,87,106
FNA:37,0,_ZN13splashkit_lib9free_fontEPNS_12sk_font_dataE
FNF:38
FNH:3
DA:22,4
DA:24,0
DA:26,0
DA:29,2
DA:31,2
DA:32,0
DA:33,2
DA:35,0
DA:37,0
DA:39,0
DA:43,0
DA:46,0
DA:47,0
DA:49,0
DA:51,0
DA:52,0
DA:54,0
DA:56,0
DA:58,0
DA:59,0
DA:62,0
DA:64,0
DA:66,0
DA:68,0
DA:69,0
DA:71,0
DA:73,0
DA:75,0
DA:79,0
DA:81,0
DA:82,0
DA:83,0
DA:84,0
DA:85,0
DA:87,0
DA:89,0
DA:91,0
DA:93,0
DA:95,0
DA:96,0
DA:97,0
DA:98,0
DA:99,0
DA:100,0
DA:101,0
DA:104,0
DA:106,0
DA:108,0
DA:110,0
DA:112,0
DA:114,0
DA:116,0
DA:117,0
DA:119,0
DA:120,0
DA:123,0
DA:124,0
DA:126,0
DA:127,0
DA:129,0
DA:131,0
DA:133,0
DA:134,0
DA:137,0
DA:139,0
DA:141,0
DA:143,0
DA:145,0
DA:146,0
DA:148,0
DA:150,0
DA:152,0
DA:153,0
DA:156,0
DA:159,0
DA:160,0
DA:162,0
DA:164,0
DA:165,0
DA:167,2
DA:169,2
DA:171,2
DA:173,2
DA:175,2
DA:177,2
DA:179,2
DA:181,2
DA:183,2
DA:185,2
DA:187,0
DA:188,0
DA:190,2
DA:191,2
DA:192,2
DA:194,2
DA:196,2
DA:198,0
DA:199,0
DA:200,0
DA:201,0
DA:203,2
DA:204,2
DA:207,2
DA:208,2
DA:210,0
DA:214,0
DA:215,0
DA:216,0
DA:217,0
DA:218,0
DA:219,0
DA:220,0
DA:221,0
DA:224,0
DA:228,0
DA:229,0
DA:230,0
DA:232,0
DA:235,0
DA:236,0
DA:237,0
DA:240,0
DA:242,0
DA:243,0
DA:245,0
DA:247,0
DA:249,0
DA:250,0
DA:253,0
DA:255,0
DA:257,0
DA:258,0
DA:260,0
DA:262,0
DA:263,0
DA:265,0
DA:267,0
DA:268,0
DA:270,0
DA:272,0
DA:273,0
DA:275,0
DA:277,0
DA:278,0
DA:280,0
DA:282,0
DA:283,0
DA:285,0
DA:287,0
DA:288,0
DA:290,0
DA:292,0
DA:293,0
DA:295,0
DA:297,0
DA:298,0
DA:300,0
DA:302,0
DA:303,0
DA:305,0
DA:307,0
DA:308,0
DA:310,0
DA:312,0
DA:313,0
DA:315,0
DA:317,0
DA:318,0
DA:320,0
DA:322,0
DA:323,0
DA:325,0
DA:327,0
DA:328,0
DA:330,0
DA:332,0
DA:333,0
DA:335,0
DA:337,0
DA:338,0
DA:340,0
DA:342,0
DA:343,0
DA:345,0
DA:347,0
DA:349,0
DA:350,0
DA:353,0
DA:354,0
DA:355,0
DA:356,0
DA:358,0
DA:360,0
DA:361,0
DA:363,0
DA:365,0
DA:367,0
DA:368,0
DA:371,0
DA:372,0
DA:373,0
DA:374,0
DA:376,0
DA:378,0
DA:379,0
LF:205
LH:23
end_of_record
TN:
SF:/Users/trungpham/Documents/splashkit-core/coresdk/src/coresdk/timers.cpp
FNL:0,0,21
FNA:0,4,__cxx_global_var_init
FNL:1,104,107
FNA:1,0,_ZN13splashkit_lib11start_timerENSt3__112basic_stringIcNS0_11char_traitsIcEENS0_9allocatorIcEEEE
FNL:2,109,119
FNA:2,0,_ZN13splashkit_lib10stop_timerEPNS_11_timer_dataE
FNL:3,121,124
FNA:3,0,_ZN13splashkit_lib10stop_timerENSt3__112basic_stringIcNS0_11char_traitsIcEENS0_9allocatorIcEEEE
FNL:4,126,139
FNA:4,0,_ZN13splashkit_lib11pause_timerEPNS_11_timer_dataE
FNL:5,141,144
FNA:5,0,_ZN13splashkit_lib11pause_timerENSt3__112basic_stringIcNS0_11char_traitsIcEENS0_9allocatorIcEEEE
FNL:6,146,160
FNA:6,0,_ZN13splashkit_lib12resume_timerEPNS_11_timer_dataE
FNL:7,162,165
FNA:7,0,_ZN13splashkit_lib12resume_timerENSt3__112basic_stringIcNS0_11char_traitsIcEENS0_9allocatorIcEEEE
FNL:8,167,177
FNA:8,0,_ZN13splashkit_lib11reset_timerEPNS_11_timer_dataE
FNL:9,179,182
FNA:9,0,_ZN13splashkit_lib11reset_timerENSt3__112basic_stringIcNS0_11char_traitsIcEENS0_9allocatorIcEEEE
FNL:10,184,201
FNA:10,142,_ZN13splashkit_lib11timer_ticksEPNS_11_timer_dataE
FNL:11,203,206
FNA:11,0,_ZN13splashkit_lib11timer_ticksENSt3__112basic_stringIcNS0_11char_traitsIcEENS0_9allocatorIcEEEE
FNL:12,208,217
FNA:12,0,_ZN13splashkit_lib12timer_pausedEPNS_11_timer_dataE
FNL:13,219,222
FNA:13,0,_ZN13splashkit_lib12timer_pausedENSt3__112basic_stringIcNS0_11char_traitsIcEENS0_9allocatorIcEEEE
FNL:14,224,233
FNA:14,0,_ZN13splashkit_lib13timer_startedEPNS_11_timer_dataE
FNL:15,23
FNA:15,2,_ZN13splashkit_lib11_timer_dataC1Ev
FNA:15,2,_ZN13splashkit_lib11_timer_dataC2Ev
FNA:15,0,_ZN13splashkit_lib11_timer_dataD1Ev
FNA:15,0,_ZN13splashkit_lib11_timer_dataD2Ev
FNL:16,235,238
FNA:16,0,_ZN13splashkit_lib13timer_startedENSt3__112basic_stringIcNS0_11char_traitsIcEENS0_9allocatorIcEEEE
FNL:17,33,49
FNA:17,2,_ZN13splashkit_lib12create_timerENSt3__112basic_stringIcNS0_11char_traitsIcEENS0_9allocatorIcEEEE
FNL:18,57,72
FNA:18,0,_ZN13splashkit_lib10free_timerEPNS_11_timer_dataE
FNL:19,74,77
FNA:19,0,_ZN13splashkit_lib15free_all_timersEv
FNL:20,79,84
FNA:20,0,_ZN13splashkit_lib11timer_namedENSt3__112basic_stringIcNS0_11char_traitsIcEENS0_9allocatorIcEEEE
FNL:21,86,89
FNA:21,2,_ZN13splashkit_lib9has_timerENSt3__112basic_stringIcNS0_11char_traitsIcEENS0_9allocatorIcEEEE
FNL:22,91,102
FNA:22,2,_ZN13splashkit_lib11start_timerEPNS_11_timer_dataE
FNF:23
FNH:6
DA:21,4
DA:33,2
DA:35,2
DA:38,2
DA:39,2
DA:40,2
DA:42,2
DA:43,2
DA:44,2
DA:45,2
DA:47,2
DA:48,2
DA:49,2
DA:57,0
DA:59,0
DA:61,0
DA:62,0
DA:65,0
DA:67,0
DA:69,0
DA:71,0
DA:72,0
DA:74,0
DA:76,0
DA:77,0
DA:79,0
DA:81,0
DA:83,0
DA:84,0
DA:86,2
DA:88,2
DA:89,0
DA:91,2
DA:93,2
DA:95,0
DA:96,0
DA:99,2
DA:100,2
DA:101,2
DA:102,2
DA:104,0
DA:106,0
DA:107,0
DA:109,0
DA:111,0
DA:113,0
DA:114,0
DA:117,0
DA:118,0
DA:119,0
DA:121,0
DA:123,0
DA:124,0
DA:126,0
DA:128,0
DA:130,0
DA:131,0
DA:134,0
DA:136,0
DA:137,0
DA:138,0
DA:139,0
DA:141,0
DA:143,0
DA:144,0
DA:146,0
DA:148,0
DA:150,0
DA:151,0
DA:154,0
DA:156,0
DA:157,0
DA:158,0
DA:159,0
DA:160,0
DA:162,0
DA:164,0
DA:165,0
DA:167,0
DA:169,0
DA:171,0
DA:172,0
DA:175,0
DA:176,0
DA:177,0
DA:179,0
DA:181,0
DA:182,0
DA:184,142
DA:186,142
DA:188,0
DA:189,0
DA:192,142
DA:194,142
DA:195,0
DA:197,142
DA:200,0
DA:201,142
DA:203,0
DA:205,0
DA:206,0
DA:208,0
DA:210,0
DA:212,0
DA:213,0
DA:216,0
DA:217,0
DA:219,0
DA:221,0
DA:222,0
DA:224,0
DA:226,0
DA:228,0
DA:229,0
DA:232,0
DA:233,0
DA:235,0
DA:237,0
DA:238,0
LF:119
LH:27
end_of_record
TN:
SF:/Users/trungpham/Documents/splashkit-core/coresdk/src/coresdk/triangle_geometry.cpp
FNL:0,106,110
FNA:0,0,_ZN13splashkit_lib25triangle_ray_intersectionERKNS_8point_2dERKNS_9vector_2dERKNS_8triangleE
FNL:1,113,173
FNA:1,0,_ZN13splashkit_lib25triangle_ray_intersectionERKNS_8point_2dERKNS_9vector_2dERKNS_8triangleERS0_Rd
FNL:2,17,23
FNA:2,16,_ZN13splashkit_lib13triangle_fromEdddddd
FNL:3,175,185
FNA:3,8,_ZN13splashkit_lib23triangle_quad_intersectERKNS_8triangleERKNS_4quadE
FNL:4,187,209
FNA:4,36,_ZN13splashkit_lib19triangles_intersectERKNS_8triangleES2_
FNL:5,211,215
FNA:5,2,_ZN13splashkit_lib19triangle_barycenterERKNS_8triangleE
FNL:6,218,221
FNA:6,2,_ZN13splashkit_lib18triangle_to_stringERKNS_8triangleE
FNL:7,26,32
FNA:7,168,_ZN13splashkit_lib13triangle_fromERKNS_8point_2dES2_S2_
FNL:8,35,35
FNA:8,26,_ZN13splashkit_lib28triangle_rectangle_intersectERKNS_8triangleERKNS_9rectangleE
FNL:9,39,104
FNA:9,46,_ZZN13splashkit_lib28triangle_rectangle_intersectERKNS_8triangleERKNS_9rectangleEENK3$_0clERKNS_8point_2dES7_
FNF:10
FNH:8
DA:17,16
DA:20,16
DA:21,16
DA:22,16
DA:23,16
DA:26,168
DA:29,168
DA:30,168
DA:31,168
DA:32,168
DA:35,26
DA:39,72
DA:46,46
DA:47,0
DA:49,46
DA:51,46
DA:54,46
DA:56,20
DA:57,20
DA:58,20
DA:62,26
DA:63,26
DA:67,46
DA:69,20
DA:70,20
DA:71,20
DA:74,26
DA:75,26
DA:79,46
DA:80,46
DA:85,46
DA:89,26
DA:91,22
DA:92,22
DA:93,22
DA:94,22
DA:97,38
DA:98,22
DA:99,16
DA:100,8
DA:101,4
DA:102,2
DA:103,2
DA:104,26
DA:106,0
DA:110,0
DA:113,0
DA:115,0
DA:118,0
DA:120,0
DA:123,0
DA:125,0
DA:126,0
DA:127,0
DA:130,0
DA:131,0
DA:134,0
DA:136,0
DA:137,0
DA:139,0
DA:140,0
DA:143,0
DA:144,0
DA:147,0
DA:148,0
DA:151,0
DA:154,0
DA:155,0
DA:158,0
DA:159,0
DA:161,0
DA:162,0
DA:163,0
DA:164,0
DA:165,0
DA:166,0
DA:168,0
DA:170,0
DA:171,0
DA:172,0
DA:173,0
DA:175,8
DA:177,8
DA:179,12
DA:181,10
DA:182,4
DA:184,2
DA:185,8
DA:187,36
DA:190,78
DA:192,64
DA:193,42
DA:195,14
DA:196,14
DA:200,42
DA:202,28
DA:204,0
DA:206,28
DA:208,14
DA:209,36
DA:211,2
DA:213,2
DA:214,2
DA:215,2
DA:218,2
DA:220,2
DA:221,0
LF:107
LH:67
end_of_record
TN:
SF:/Users/trungpham/Documents/splashkit-core/coresdk/src/coresdk/utils.cpp
FNL:0,30,54
FNA:0,4,_ZN13splashkit_lib5delayEi
FNL:1,56,58
FNA:1,2,_ZN13splashkit_lib13current_ticksEv
FNL:2,61,74
FNA:2,8,_ZN13splashkit_lib14file_as_stringENSt3__112basic_stringIcNS0_11char_traitsIcEENS0_9allocatorIcEEEENS_13resource_kindE
FNL:3,77,86
FNA:3,0,_ZN13splashkit_lib11draw_buttonEPNS_12_window_dataERKNSt3__112basic_stringIcNS2_11char_traitsIcEENS2_9allocatorIcEEEEPNS_12sk_font_dataEiRKNS_9rectangleE
FNL:4,88,90
FNA:4,0,_ZN13splashkit_lib14button_clickedEPNS_12_window_dataERKNS_9rectangleE
FNL:5,93,136
FNA:5,0,_ZN13splashkit_lib14display_dialogERKNSt3__112basic_stringIcNS0_11char_traitsIcEENS0_9allocatorIcEEEES8_PNS_12sk_font_dataEi
FNF:6
FNH:3
DA:30,4
DA:32,4
DA:34,2
DA:35,0
DA:39,10
DA:41,8
DA:43,0
DA:44,0
DA:45,0
DA:47,8
DA:48,8
DA:49,2
DA:51,2
DA:53,2
DA:54,4
DA:56,2
DA:58,2
DA:61,8
DA:63,8
DA:65,8
DA:66,8
DA:67,8
DA:68,40
DA:70,32
DA:73,8
DA:74,8
DA:77,0
DA:79,0
DA:80,0
DA:82,0
DA:84,0
DA:85,0
DA:86,0
DA:88,0
DA:90,0
DA:93,0
DA:97,0
DA:99,0
DA:101,0
DA:102,0
DA:103,0
DA:106,0
DA:107,0
DA:109,0
DA:111,0
DA:112,0
DA:114,0
DA:116,0
DA:117,0
DA:119,0
DA:121,0
DA:123,0
DA:124,0
DA:126,0
DA:128,0
DA:130,0
DA:131,0
DA:132,0
DA:134,0
DA:135,0
DA:136,0
LF:61
LH:22
end_of_record
TN:
SF:/Users/trungpham/Documents/splashkit-core/coresdk/src/coresdk/vector_2d.cpp
FNL:0,117,121
FNA:0,0,_ZN13splashkit_lib13angle_betweenERKNS_9vector_2dES2_
FNL:1,124,135
FNA:1,2,_ZN13splashkit_lib13vector_normalERKNS_9vector_2dE
FNL:2,137,139
FNA:2,290,_ZN13splashkit_lib24vector_magnitude_squaredERKNS_9vector_2dE
FNL:3,142,144
FNA:3,276,_ZN13splashkit_lib16vector_magnitudeERKNS_9vector_2dE
FNL:4,147,154
FNA:4,0,_ZN13splashkit_lib12vector_limitERKNS_9vector_2dEd
FNL:5,156,166
FNA:5,78,_ZN13splashkit_lib11unit_vectorERKNS_9vector_2dE
FNL:6,169,171
FNA:6,0,_ZN13splashkit_lib14is_zero_vectorERKNS_9vector_2dE
FNL:7,174,191
FNA:7,0,_ZN13splashkit_lib22ray_intersection_pointERKNS_8point_2dERKNS_9vector_2dERKNS_4lineERS0_
FNL:8,193,243
FNA:8,0,_ZN13splashkit_lib29vector_out_of_rect_from_pointERKNS_8point_2dERKNS_9rectangleERKNS_9vector_2dE
FNL:9,21,24
FNA:9,0,_ZN13splashkit_lib16vector_to_stringERKNS_9vector_2dE
FNL:10,254,355
FNA:10,0,_ZN13splashkit_lib29vector_over_lines_from_circleERKNS_6circleENSt3__16vectorINS_4lineENS3_9allocatorIS5_EEEERKNS_9vector_2dERi
FNL:11,26,28
FNA:11,15384,_ZN13splashkit_lib9vector_toEdd
FNL:12,31,36
FNA:12,754,_ZN13splashkit_lib9vector_toERKNS_8point_2dE
FNL:13,357,365
FNA:13,0,_ZN13splashkit_lib11points_fromERKNS_9rectangleE
FNL:14,367,373
FNA:14,0,_ZN13splashkit_lib11points_fromERKNS_4lineE
FNL:15,375,380
FNA:15,0,_ZN13splashkit_lib28vector_over_lines_from_linesERKNSt3__16vectorINS_4lineENS0_9allocatorIS2_EEEES7_RKNS_9vector_2dERi
FNL:16,384,464
FNA:16,0,_ZZN13splashkit_lib28vector_over_lines_from_linesERKNSt3__16vectorINS_4lineENS0_9allocatorIS2_EEEES7_RKNS_9vector_2dERiENK3$_0clENS_8point_2dERKS2_S8_
FNL:17,39,44
FNA:17,210,_ZN13splashkit_lib21vector_point_to_pointERKNS_8point_2dES2_
FNL:18,466,470
FNA:18,0,_ZN13splashkit_lib28vector_out_of_rect_from_rectERKNS_9rectangleES2_RKNS_9vector_2dE
FNL:19,47,49
FNA:19,6,_ZN13splashkit_lib13vector_invertERKNS_9vector_2dE
FNL:20,472,510
FNA:20,0,_ZN13splashkit_lib31vector_out_of_circle_from_pointERKNS_8point_2dERKNS_6circleERKNS_9vector_2dE
FNL:21,512,515
FNA:21,0,_ZN13splashkit_lib32vector_out_of_circle_from_circleERKNS_6circleES2_RKNS_9vector_2dE
FNL:22,518,522
FNA:22,0,_ZN13splashkit_lib30vector_out_of_rect_from_circleERKNS_6circleERKNS_9rectangleERKNS_9vector_2dE
FNL:23,52,54
FNA:23,16,_ZN13splashkit_lib17vector_from_angleEdd
FNL:24,524,536
FNA:24,0,_ZN13splashkit_lib25vector_from_point_to_rectERKNS_8point_2dERKNS_9rectangleE
FNL:25,539,546
FNA:25,0,_ZN13splashkit_lib14vector_in_rectERKNS_9vector_2dERKNS_9rectangleE
FNL:26,57,59
FNA:26,2,_ZN13splashkit_lib16vector_from_lineERKNS_4lineE
FNL:27,62,64
FNA:27,2669612,_ZN13splashkit_lib10vector_addERKNS_9vector_2dES2_
FNL:28,67,69
FNA:28,620,_ZN13splashkit_lib15vector_subtractERKNS_9vector_2dES2_
FNL:29,72,74
FNA:29,50,_ZN13splashkit_lib15vector_multiplyERKNS_9vector_2dEd
FNL:30,77,79
FNA:30,0,_ZN13splashkit_lib13vectors_equalERKNS_9vector_2dES0_
FNL:31,82,84
FNA:31,0,_ZN13splashkit_lib17vectors_not_equalERKNS_9vector_2dES0_
FNL:32,87,89
FNA:32,964,_ZN13splashkit_lib11dot_productERKNS_9vector_2dES2_
FNL:33,92,115
FNA:33,18,_ZN13splashkit_lib12vector_angleENS_9vector_2dE
FNF:34
FNH:15
DA:21,0
DA:23,0
DA:24,0
DA:26,15384
DA:28,15384
DA:31,754
DA:34,754
DA:35,754
DA:36,754
DA:39,210
DA:42,210
DA:43,210
DA:44,210
DA:47,6
DA:49,6
DA:52,16
DA:54,16
DA:57,2
DA:59,2
DA:62,2669612
DA:64,2669612
DA:67,620
DA:69,620
DA:72,50
DA:74,50
DA:77,0
DA:79,0
DA:82,0
DA:84,0
DA:87,964
DA:89,964
DA:92,18
DA:94,18
DA:96,2
DA:97,2
DA:99,16
DA:101,2
DA:102,2
DA:106,14
DA:108,14
DA:110,4
DA:111,2
DA:112,4
DA:113,14
DA:115,18
DA:117,0
DA:119,0
DA:120,0
DA:121,0
DA:124,2
DA:126,2
DA:128,2
DA:130,0
DA:131,0
DA:134,2
DA:135,2
DA:137,290
DA:139,290
DA:142,276
DA:144,276
DA:147,0
DA:149,0
DA:151,0
DA:153,0
DA:154,0
DA:156,78
DA:159,78
DA:161,78
DA:162,2
DA:164,76
DA:166,78
DA:169,0
DA:171,0
DA:174,0
DA:179,0
DA:182,0
DA:185,0
DA:188,0
DA:190,0
DA:191,0
DA:193,0
DA:201,0
DA:202,0
DA:204,0
DA:205,0
DA:206,0
DA:207,0
DA:208,0
DA:212,0
DA:213,0
DA:216,0
DA:222,0
DA:227,0
DA:230,0
DA:233,0
DA:235,0
DA:236,0
DA:237,0
DA:238,0
DA:239,0
DA:240,0
DA:241,0
DA:243,0
DA:254,0
DA:266,0
DA:268,0
DA:270,0
DA:274,0
DA:275,0
DA:276,0
DA:277,0
DA:279,0
DA:280,0
DA:283,0
DA:286,0
DA:288,0
DA:290,0
DA:291,0
DA:294,0
DA:296,0
DA:299,0
DA:304,0
DA:309,0
DA:310,0
DA:311,0
DA:312,0
DA:313,0
DA:317,0
DA:320,0
DA:322,0
DA:325,0
DA:329,0
DA:334,0
DA:338,0
DA:342,0
DA:344,0
DA:346,0
DA:347,0
DA:348,0
DA:349,0
DA:350,0
DA:351,0
DA:352,0
DA:354,0
DA:355,0
DA:357,0
DA:359,0
DA:360,0
DA:361,0
DA:362,0
DA:363,0
DA:364,0
DA:365,0
DA:367,0
DA:369,0
DA:370,0
DA:371,0
DA:372,0
DA:373,0
DA:375,0
DA:380,0
DA:384,0
DA:393,0
DA:395,0
DA:396,0
DA:403,0
DA:406,0
DA:408,0
DA:409,0
DA:410,0
DA:411,0
DA:413,0
DA:414,0
DA:415,0
DA:416,0
DA:418,0
DA:419,0
DA:422,0
DA:423,0
DA:426,0
DA:427,0
DA:432,0
DA:435,0
DA:438,0
DA:443,0
DA:444,0
DA:446,0
DA:449,0
DA:450,0
DA:452,0
DA:456,0
DA:458,0
DA:459,0
DA:460,0
DA:461,0
DA:464,0
DA:466,0
DA:468,0
DA:469,0
DA:470,0
DA:472,0
DA:479,0
DA:481,0
DA:486,0
DA:487,0
DA:488,0
DA:489,0
DA:491,0
DA:492,0
DA:493,0
DA:495,0
DA:498,0
DA:499,0
DA:503,0
DA:504,0
DA:505,0
DA:507,0
DA:508,0
DA:510,0
DA:512,0
DA:514,0
DA:515,0
DA:518,0
DA:521,0
DA:522,0
DA:524,0
DA:528,0
DA:529,0
DA:530,0
DA:532,0
DA:533,0
DA:534,0
DA:536,0
DA:539,0
DA:541,0
DA:542,0
DA:543,0
DA:544,0
DA:545,0
DA:546,0
LF:240
LH:53
end_of_record
TN:
SF:/Users/trungpham/Documents/splashkit-core/coresdk/src/coresdk/web_server.cpp
FNL:0,122,125
FNA:0,0,_ZN13splashkit_lib13send_responseEPNS_15sk_http_requestENS_16http_status_codeERKNSt3__112basic_stringIcNS3_11char_traitsIcEENS3_9allocatorIcEEEESB_
FNL:1,127,130
FNA:1,0,_ZN13splashkit_lib13send_responseEPNS_15sk_http_requestERKNSt3__112basic_stringIcNS2_11char_traitsIcEENS2_9allocatorIcEEEE
FNL:2,132,135
FNA:2,0,_ZN13splashkit_lib13send_responseEPNS_15sk_http_requestENS_16http_status_codeERKNSt3__112basic_stringIcNS3_11char_traitsIcEENS3_9allocatorIcEEEE
FNL:3,137,140
FNA:3,0,_ZN13splashkit_lib13send_responseEPNS_15sk_http_requestEPNS_7sk_jsonE
FNL:4,142,145
FNA:4,0,_ZN13splashkit_lib13send_responseEPNS_15sk_http_requestENS_16http_status_codeE
FNL:5,147,150
FNA:5,0,_ZN13splashkit_lib13send_responseEPNS_15sk_http_requestE
FNL:6,152,156
FNA:6,0,_ZN13splashkit_lib18send_file_responseEPNS_15sk_http_requestERKNSt3__112basic_stringIcNS2_11char_traitsIcEENS2_9allocatorIcEEEESA_
FNL:7,158,161
FNA:7,0,_ZN13splashkit_lib29send_javascript_file_responseEPNS_15sk_http_requestERKNSt3__112basic_stringIcNS2_11char_traitsIcEENS2_9allocatorIcEEEE
FNL:8,163,166
FNA:8,0,_ZN13splashkit_lib22send_css_file_responseEPNS_15sk_http_requestERKNSt3__112basic_stringIcNS2_11char_traitsIcEENS2_9allocatorIcEEEE
FNL:9,168,171
FNA:9,0,_ZN13splashkit_lib23send_html_file_responseEPNS_15sk_http_requestERKNSt3__112basic_stringIcNS2_11char_traitsIcEENS2_9allocatorIcEEEE
FNL:10,173,182
FNA:10,0,_ZN13splashkit_lib11request_uriEPNS_15sk_http_requestE
FNL:11,184,193
FNA:11,0,_ZN13splashkit_lib20request_query_stringEPNS_15sk_http_requestE
FNL:12,198,239
FNA:12,0,_ZN13splashkit_lib23request_query_parameterEPNS_15sk_http_requestERKNSt3__112basic_stringIcNS2_11char_traitsIcEENS2_9allocatorIcEEEESA_
FNL:13,21,23
FNA:13,0,_ZN13splashkit_lib16start_web_serverEt
FNL:14,241,250
FNA:14,0,_ZN13splashkit_lib27request_has_query_parameterEPNS_15sk_http_requestERKNSt3__112basic_stringIcNS2_11char_traitsIcEENS2_9allocatorIcEEEE
FNL:15,254,263
FNA:15,0,_ZN13splashkit_lib14request_methodEPNS_15sk_http_requestE
FNL:16,26,28
FNA:16,0,_ZN13splashkit_lib16start_web_serverEv
FNL:17,265,274
FNA:17,0,_ZN13splashkit_lib12request_bodyEPNS_15sk_http_requestE
FNL:18,276,285
FNA:18,0,_ZN13splashkit_lib15request_headersEPNS_15sk_http_requestE
FNL:19,287,291
FNA:19,0,_ZN13splashkit_lib17request_uri_stubsEPNS_15sk_http_requestE
FNL:20,293,314
FNA:20,14,_ZN13splashkit_lib15split_uri_stubsERKNSt3__112basic_stringIcNS0_11char_traitsIcEENS0_9allocatorIcEEEE
FNL:21,31,40
FNA:21,0,_ZN13splashkit_lib21has_incoming_requestsEPNS_13sk_web_serverE
FNL:22,316,320
FNA:22,0,_ZN13splashkit_lib14is_request_forEPNS_15sk_http_requestENS_11http_methodERKNSt3__112basic_stringIcNS3_11char_traitsIcEENS3_9allocatorIcEEEE
FNL:23,322,324
FNA:23,0,_ZN13splashkit_lib18is_get_request_forEPNS_15sk_http_requestERKNSt3__112basic_stringIcNS2_11char_traitsIcEENS2_9allocatorIcEEEE
FNL:24,327,329
FNA:24,0,_ZN13splashkit_lib19is_post_request_forEPNS_15sk_http_requestERKNSt3__112basic_stringIcNS2_11char_traitsIcEENS2_9allocatorIcEEEE
FNL:25,332,334
FNA:25,0,_ZN13splashkit_lib18is_put_request_forEPNS_15sk_http_requestERKNSt3__112basic_stringIcNS2_11char_traitsIcEENS2_9allocatorIcEEEE
FNL:26,337,339
FNA:26,0,_ZN13splashkit_lib21is_delete_request_forEPNS_15sk_http_requestERKNSt3__112basic_stringIcNS2_11char_traitsIcEENS2_9allocatorIcEEEE
FNL:27,342,344
FNA:27,0,_ZN13splashkit_lib22is_options_request_forEPNS_15sk_http_requestERKNSt3__112basic_stringIcNS2_11char_traitsIcEENS2_9allocatorIcEEEE
FNL:28,347,349
FNA:28,0,_ZN13splashkit_lib20is_trace_request_forEPNS_15sk_http_requestERKNSt3__112basic_stringIcNS2_11char_traitsIcEENS2_9allocatorIcEEEE
FNL:29,42,51
FNA:29,0,_ZN13splashkit_lib15stop_web_serverEPNS_13sk_web_serverE
FNL:30,53,67
FNA:30,0,_ZN13splashkit_lib16next_web_requestEPNS_13sk_web_serverE
FNL:31,69,88
FNA:31,0,_ZN13splashkit_lib14_send_responseEPNS_15sk_http_requestEPNS_16sk_http_responseE
FNL:32,90,120
FNA:32,0,_ZN13splashkit_lib13send_responseEPNS_15sk_http_requestENS_16http_status_codeERKNSt3__112basic_stringIcNS3_11char_traitsIcEENS3_9allocatorIcEEEESB_RKNS3_6vectorIS9_NS7_IS9_EEEE
FNF:33
FNH:1
DA:21,0
DA:23,0
DA:26,0
DA:28,0
DA:31,0
DA:33,0
DA:35,0
DA:36,0
DA:39,0
DA:40,0
DA:42,0
DA:44,0
DA:46,0
DA:47,0
DA:50,0
DA:51,0
DA:53,0
DA:55,0
DA:57,0
DA:58,0
DA:61,0
DA:64,0
DA:66,0
DA:67,0
DA:69,0
DA:71,0
DA:73,0
DA:74,0
DA:77,0
DA:79,0
DA:82,0
DA:83,0
DA:85,0
DA:86,0
DA:87,0
DA:88,0
DA:90,0
DA:92,0
DA:94,0
DA:95,0
DA:97,0
DA:99,0
DA:100,0
DA:103,0
DA:105,0
DA:106,0
DA:107,0
DA:108,0
DA:109,0
DA:110,0
DA:112,0
DA:116,0
DA:119,0
DA:120,0
DA:122,0
DA:124,0
DA:125,0
DA:127,0
DA:129,0
DA:130,0
DA:132,0
DA:134,0
DA:135,0
DA:137,0
DA:139,0
DA:140,0
DA:142,0
DA:144,0
DA:145,0
DA:147,0
DA:149,0
DA:150,0
DA:152,0
DA:154,0
DA:155,0
DA:156,0
DA:158,0
DA:160,0
DA:161,0
DA:163,0
DA:165,0
DA:166,0
DA:168,0
DA:170,0
DA:171,0
DA:173,0
DA:175,0
DA:177,0
DA:178,0
DA:181,0
DA:182,0
DA:184,0
DA:186,0
DA:188,0
DA:189,0
DA:192,0
DA:193,0
DA:198,0
DA:200,0
DA:202,0
DA:203,0
DA:206,0
DA:208,0
DA:210,0
DA:212,0
DA:213,0
DA:215,0
DA:217,0
DA:219,0
DA:220,0
DA:221,0
DA:222,0
DA:224,0
DA:225,0
DA:226,0
DA:228,0
DA:232,0
DA:235,0
DA:238,0
DA:239,0
DA:241,0
DA:243,0
DA:245,0
DA:246,0
DA:249,0
DA:250,0
DA:254,0
DA:256,0
DA:258,0
DA:259,0
DA:262,0
DA:263,0
DA:265,0
DA:267,0
DA:269,0
DA:270,0
DA:273,0
DA:274,0
DA:276,0
DA:278,0
DA:280,0
DA:281,0
DA:284,0
DA:285,0
DA:287,0
DA:289,0
DA:290,0
DA:291,0
DA:293,14
DA:295,14
DA:296,14
DA:297,14
DA:300,14
DA:302,34
DA:304,20
DA:308,14
DA:310,8
DA:311,8
DA:313,14
DA:314,14
DA:316,0
DA:318,0
DA:319,0
DA:320,0
DA:322,0
DA:324,0
DA:327,0
DA:329,0
DA:332,0
DA:334,0
DA:337,0
DA:339,0
DA:342,0
DA:344,0
DA:347,0
DA:349,0
LF:176
LH:12
end_of_record
TN:
SF:/Users/trungpham/Documents/splashkit-core/coresdk/src/coresdk/window_manager.cpp
FNL:0,0,26
FNA:0,4,__cxx_global_var_init
FNL:1,117,126
FNA:1,0,_ZN13splashkit_lib14refresh_windowEPNS_12_window_dataE
FNL:2,128,132
FNA:2,0,_ZN13splashkit_lib14refresh_windowEPNS_12_window_dataEj
FNL:3,134,143
FNA:3,0,_ZN13splashkit_lib12clear_windowEPNS_12_window_dataENS_5colorE
FNL:4,145,171
FNA:4,0,_ZN13splashkit_lib12close_windowEPNS_12_window_dataE
FNL:5,173,176
FNA:5,0,_ZN13splashkit_lib12close_windowERKNSt3__112basic_stringIcNS0_11char_traitsIcEENS0_9allocatorIcEEEE
FNL:6,178,181
FNA:6,0,_ZN13splashkit_lib20close_current_windowEv
FNL:7,183,187
FNA:7,0,_ZN13splashkit_lib17close_all_windowsEv
FNL:8,189,191
FNA:8,0,_ZN13splashkit_lib10has_windowENSt3__112basic_stringIcNS0_11char_traitsIcEENS0_9allocatorIcEEEE
FNL:9,194,200
FNA:9,0,_ZN13splashkit_lib12window_namedENSt3__112basic_stringIcNS0_11char_traitsIcEENS0_9allocatorIcEEEE
FNL:10,202,213
FNA:10,0,_ZN13splashkit_lib17window_with_focusEv
FNL:11,215,224
FNA:11,0,_ZN13splashkit_lib16window_has_focusEPNS_12_window_dataE
FNL:12,226,228
FNA:12,4,_ZN13splashkit_lib14current_windowEv
FNL:13,231,240
FNA:13,0,_ZN13splashkit_lib18set_current_windowEPNS_12_window_dataE
FNL:14,242,245
FNA:14,0,_ZN13splashkit_lib18set_current_windowERKNSt3__112basic_stringIcNS0_11char_traitsIcEENS0_9allocatorIcEEEE
FNL:15,247,249
FNA:15,0,_ZN13splashkit_lib17is_current_windowEPNS_12_window_dataE
FNL:16,252,263
FNA:16,0,_ZN13splashkit_lib22window_close_requestedEPNS_12_window_dataE
FNL:17,265,268
FNA:17,0,_ZN13splashkit_lib22window_close_requestedERKNSt3__112basic_stringIcNS0_11char_traitsIcEENS0_9allocatorIcEEEE
FNL:18,270,279
FNA:18,2,_ZN13splashkit_lib12window_widthEPNS_12_window_dataE
FNL:19,28,30
FNA:19,8,_ZN13splashkit_lib19number_open_windowsEv
FNL:20,281,284
FNA:20,0,_ZN13splashkit_lib12window_widthERKNSt3__112basic_stringIcNS0_11char_traitsIcEENS0_9allocatorIcEEEE
FNL:21,286,288
FNA:21,0,_ZN13splashkit_lib20current_window_widthEv
FNL:22,291,300
FNA:22,2,_ZN13splashkit_lib13window_heightEPNS_12_window_dataE
FNL:23,302,305
FNA:23,0,_ZN13splashkit_lib13window_heightERKNSt3__112basic_stringIcNS0_11char_traitsIcEENS0_9allocatorIcEEEE
FNL:24,307,309
FNA:24,0,_ZN13splashkit_lib21current_window_heightEv
FNL:25,312,321
FNA:25,0,_ZN13splashkit_lib13resize_windowEPNS_12_window_dataEii
FNL:26,323,326
FNA:26,0,_ZN13splashkit_lib21resize_current_windowEii
FNL:27,328,337
FNA:27,0,_ZN13splashkit_lib14move_window_toEPNS_12_window_dataEii
FNL:28,33,96
FNA:28,0,_ZN13splashkit_lib11open_windowENSt3__112basic_stringIcNS0_11char_traitsIcEENS0_9allocatorIcEEEEii
FNL:29,339,342
FNA:29,0,_ZN13splashkit_lib14move_window_toERKNSt3__112basic_stringIcNS0_11char_traitsIcEENS0_9allocatorIcEEEEii
FNL:30,344,347
FNA:30,0,_ZN13splashkit_lib22move_current_window_toEii
FNL:31,349,358
FNA:31,0,_ZN13splashkit_lib20window_is_fullscreenEPNS_12_window_dataE
FNL:32,360,363
FNA:32,0,_ZN13splashkit_lib20window_is_fullscreenERKNSt3__112basic_stringIcNS0_11char_traitsIcEENS0_9allocatorIcEEEE
FNL:33,365,367
FNA:33,0,_ZN13splashkit_lib28current_window_is_fullscreenEv
FNL:34,370,385
FNA:34,0,_ZN13splashkit_lib24window_toggle_fullscreenEPNS_12_window_dataE
FNL:35,387,390
FNA:35,0,_ZN13splashkit_lib24window_toggle_fullscreenERKNSt3__112basic_stringIcNS0_11char_traitsIcEENS0_9allocatorIcEEEE
FNL:36,392,395
FNA:36,0,_ZN13splashkit_lib32current_window_toggle_fullscreenEv
FNL:37,397,406
FNA:37,0,_ZN13splashkit_lib17window_has_borderEPNS_12_window_dataE
FNL:38,408,411
FNA:38,0,_ZN13splashkit_lib17window_has_borderERKNSt3__112basic_stringIcNS0_11char_traitsIcEENS0_9allocatorIcEEEE
FNL:39,413,415
FNA:39,0,_ZN13splashkit_lib25current_window_has_borderEv
FNL:40,418,428
FNA:40,0,_ZN13splashkit_lib20window_toggle_borderEPNS_12_window_dataE
FNL:41,430,433
FNA:41,0,_ZN13splashkit_lib20window_toggle_borderERKNSt3__112basic_stringIcNS0_11char_traitsIcEENS0_9allocatorIcEEEE
FNL:42,435,438
FNA:42,0,_ZN13splashkit_lib28current_window_toggle_borderEv
FNL:43,440,453
FNA:43,0,_ZN13splashkit_lib8window_xEPNS_12_window_dataE
FNL:44,455,458
FNA:44,0,_ZN13splashkit_lib8window_xERKNSt3__112basic_stringIcNS0_11char_traitsIcEENS0_9allocatorIcEEEE
FNL:45,460,462
FNA:45,0,_ZN13splashkit_lib16current_window_xEv
FNL:46,465,478
FNA:46,0,_ZN13splashkit_lib8window_yEPNS_12_window_dataE
FNL:47,480,483
FNA:47,0,_ZN13splashkit_lib8window_yERKNSt3__112basic_stringIcNS0_11char_traitsIcEENS0_9allocatorIcEEEE
FNL:48,485,487
FNA:48,0,_ZN13splashkit_lib16current_window_yEv
FNL:49,490,503
FNA:49,0,_ZN13splashkit_lib15window_positionEPNS_12_window_dataE
FNL:50,505,508
FNA:50,0,_ZN13splashkit_lib15window_positionERKNSt3__112basic_stringIcNS0_11char_traitsIcEENS0_9allocatorIcEEEE
FNL:51,510,512
FNA:51,0,_ZN13splashkit_lib23current_window_positionEv
FNL:52,515,524
FNA:52,0,_ZN13splashkit_lib14window_captionEPNS_12_window_dataE
FNL:53,98,112
FNA:53,0,_ZN13splashkit_lib15window_set_iconEPNS_12_window_dataEPNS_12_bitmap_dataE
FNF:54
FNH:5
DA:26,4
DA:28,8
DA:30,8
DA:33,0
DA:36,0
DA:40,0
DA:42,0
DA:43,0
DA:45,0
DA:47,0
DA:48,0
DA:51,0
DA:53,0
DA:54,0
DA:56,0
DA:58,0
DA:60,0
DA:61,0
DA:62,0
DA:64,0
DA:66,0
DA:67,0
DA:79,0
DA:80,0
DA:82,0
DA:85,0
DA:87,0
DA:89,0
DA:91,0
DA:92,0
DA:93,0
DA:95,0
DA:96,0
DA:98,0
DA:100,0
DA:102,0
DA:103,0
DA:105,0
DA:107,0
DA:108,0
DA:111,0
DA:112,0
DA:117,0
DA:119,0
DA:121,0
DA:122,0
DA:125,0
DA:126,0
DA:128,0
DA:130,0
DA:131,0
DA:132,0
DA:134,0
DA:136,0
DA:138,0
DA:139,0
DA:142,0
DA:143,0
DA:145,0
DA:147,0
DA:149,0
DA:150,0
DA:153,0
DA:155,0
DA:156,0
DA:158,0
DA:160,0
DA:161,0
DA:163,0
DA:164,0
DA:165,0
DA:167,0
DA:168,0
DA:169,0
DA:170,0
DA:171,0
DA:173,0
DA:175,0
DA:176,0
DA:178,0
DA:180,0
DA:181,0
DA:183,0
DA:185,0
DA:186,0
DA:187,0
DA:189,0
DA:191,0
DA:194,0
DA:196,0
DA:197,0
DA:199,0
DA:200,0
DA:202,0
DA:204,0
DA:206,0
DA:208,0
DA:210,0
DA:212,0
DA:213,0
DA:215,0
DA:217,0
DA:219,0
DA:220,0
DA:223,0
DA:224,0
DA:226,4
DA:228,4
DA:231,0
DA:233,0
DA:235,0
DA:236,0
DA:239,0
DA:240,0
DA:242,0
DA:244,0
DA:245,0
DA:247,0
DA:249,0
DA:252,0
DA:254,0
DA:256,0
DA:258,0
DA:259,0
DA:262,0
DA:263,0
DA:265,0
DA:267,0
DA:268,0
DA:270,2
DA:272,2
DA:274,2
DA:275,2
DA:278,0
DA:279,2
DA:281,0
DA:283,0
DA:284,0
DA:286,0
DA:288,0
DA:291,2
DA:293,2
DA:295,2
DA:296,2
DA:299,0
DA:300,2
DA:302,0
DA:304,0
DA:305,0
DA:307,0
DA:309,0
DA:312,0
DA:314,0
DA:316,0
DA:317,0
DA:320,0
DA:321,0
DA:323,0
DA:325,0
DA:326,0
DA:328,0
DA:330,0
DA:332,0
DA:333,0
DA:336,0
DA:337,0
DA:339,0
DA:341,0
DA:342,0
DA:344,0
DA:346,0
DA:347,0
DA:349,0
DA:351,0
DA:353,0
DA:354,0
DA:357,0
DA:358,0
DA:360,0
DA:362,0
DA:363,0
DA:365,0
DA:367,0
DA:370,0
DA:372,0
DA:374,0
DA:375,0
DA:378,0
DA:379,0
DA:381,0
DA:383,0
DA:384,0
DA:385,0
DA:387,0
DA:389,0
DA:390,0
DA:392,0
DA:394,0
DA:395,0
DA:397,0
DA:399,0
DA:401,0
DA:402,0
DA:405,0
DA:406,0
DA:408,0
DA:410,0
DA:411,0
DA:413,0
DA:415,0
DA:418,0
DA:420,0
DA:422,0
DA:423,0
DA:426,0
DA:427,0
DA:428,0
DA:430,0
DA:432,0
DA:433,0
DA:435,0
DA:437,0
DA:438,0
DA:440,0
DA:442,0
DA:444,0
DA:445,0
DA:450,0
DA:452,0
DA:453,0
DA:455,0
DA:457,0
DA:458,0
DA:460,0
DA:462,0
DA:465,0
DA:467,0
DA:469,0
DA:470,0
DA:475,0
DA:477,0
DA:478,0
DA:480,0
DA:482,0
DA:483,0
DA:485,0
DA:487,0
DA:490,0
DA:492,0
DA:494,0
DA:495,0
DA:500,0
DA:502,0
DA:503,0
DA:505,0
DA:507,0
DA:508,0
DA:510,0
DA:512,0
DA:515,0
DA:517,0
DA:519,0
DA:520,0
DA:523,0
DA:524,0
LF:265
LH:15
end_of_record
